ARM GAS  /var/folders/2r/ldzc7vgx4p51wnq3gxc1dn840000gn/T//cc3qsJyT.s 			page 1


   1              		.cpu cortex-m7
   2              		.arch armv7e-m
   3              		.fpu fpv5-d16
   4              		.eabi_attribute 28, 1
   5              		.eabi_attribute 20, 1
   6              		.eabi_attribute 21, 1
   7              		.eabi_attribute 23, 3
   8              		.eabi_attribute 24, 1
   9              		.eabi_attribute 25, 1
  10              		.eabi_attribute 26, 1
  11              		.eabi_attribute 30, 1
  12              		.eabi_attribute 34, 1
  13              		.eabi_attribute 18, 4
  14              		.file	"stm32h7xx_hal_iwdg.c"
  15              		.text
  16              	.Ltext0:
  17              		.cfi_sections	.debug_frame
  18              		.file 1 "Drivers/STM32H7xx_HAL_Driver/Src/stm32h7xx_hal_iwdg.c"
  19              		.section	.text.HAL_IWDG_Init,"ax",%progbits
  20              		.align	1
  21              		.global	HAL_IWDG_Init
  22              		.syntax unified
  23              		.thumb
  24              		.thumb_func
  26              	HAL_IWDG_Init:
  27              	.LVL0:
  28              	.LFB350:
   1:Drivers/STM32H7xx_HAL_Driver/Src/stm32h7xx_hal_iwdg.c **** /**
   2:Drivers/STM32H7xx_HAL_Driver/Src/stm32h7xx_hal_iwdg.c ****   ******************************************************************************
   3:Drivers/STM32H7xx_HAL_Driver/Src/stm32h7xx_hal_iwdg.c ****   * @file    stm32h7xx_hal_iwdg.c
   4:Drivers/STM32H7xx_HAL_Driver/Src/stm32h7xx_hal_iwdg.c ****   * @author  MCD Application Team
   5:Drivers/STM32H7xx_HAL_Driver/Src/stm32h7xx_hal_iwdg.c ****   * @brief   IWDG HAL module driver.
   6:Drivers/STM32H7xx_HAL_Driver/Src/stm32h7xx_hal_iwdg.c ****   *          This file provides firmware functions to manage the following
   7:Drivers/STM32H7xx_HAL_Driver/Src/stm32h7xx_hal_iwdg.c ****   *          functionalities of the Independent Watchdog (IWDG) peripheral:
   8:Drivers/STM32H7xx_HAL_Driver/Src/stm32h7xx_hal_iwdg.c ****   *           + Initialization and Start functions
   9:Drivers/STM32H7xx_HAL_Driver/Src/stm32h7xx_hal_iwdg.c ****   *           + IO operation functions
  10:Drivers/STM32H7xx_HAL_Driver/Src/stm32h7xx_hal_iwdg.c ****   *
  11:Drivers/STM32H7xx_HAL_Driver/Src/stm32h7xx_hal_iwdg.c ****   ******************************************************************************
  12:Drivers/STM32H7xx_HAL_Driver/Src/stm32h7xx_hal_iwdg.c ****   * @attention
  13:Drivers/STM32H7xx_HAL_Driver/Src/stm32h7xx_hal_iwdg.c ****   *
  14:Drivers/STM32H7xx_HAL_Driver/Src/stm32h7xx_hal_iwdg.c ****   * Copyright (c) 2017 STMicroelectronics.
  15:Drivers/STM32H7xx_HAL_Driver/Src/stm32h7xx_hal_iwdg.c ****   * All rights reserved.
  16:Drivers/STM32H7xx_HAL_Driver/Src/stm32h7xx_hal_iwdg.c ****   *
  17:Drivers/STM32H7xx_HAL_Driver/Src/stm32h7xx_hal_iwdg.c ****   * This software is licensed under terms that can be found in the LICENSE file
  18:Drivers/STM32H7xx_HAL_Driver/Src/stm32h7xx_hal_iwdg.c ****   * in the root directory of this software component.
  19:Drivers/STM32H7xx_HAL_Driver/Src/stm32h7xx_hal_iwdg.c ****   * If no LICENSE file comes with this software, it is provided AS-IS.
  20:Drivers/STM32H7xx_HAL_Driver/Src/stm32h7xx_hal_iwdg.c ****   *
  21:Drivers/STM32H7xx_HAL_Driver/Src/stm32h7xx_hal_iwdg.c ****   ******************************************************************************
  22:Drivers/STM32H7xx_HAL_Driver/Src/stm32h7xx_hal_iwdg.c ****   @verbatim
  23:Drivers/STM32H7xx_HAL_Driver/Src/stm32h7xx_hal_iwdg.c ****   ==============================================================================
  24:Drivers/STM32H7xx_HAL_Driver/Src/stm32h7xx_hal_iwdg.c ****                     ##### IWDG Generic features #####
  25:Drivers/STM32H7xx_HAL_Driver/Src/stm32h7xx_hal_iwdg.c ****   ==============================================================================
  26:Drivers/STM32H7xx_HAL_Driver/Src/stm32h7xx_hal_iwdg.c ****   [..]
  27:Drivers/STM32H7xx_HAL_Driver/Src/stm32h7xx_hal_iwdg.c ****     (+) The IWDG can be started by either software or hardware (configurable
  28:Drivers/STM32H7xx_HAL_Driver/Src/stm32h7xx_hal_iwdg.c ****         through option byte).
  29:Drivers/STM32H7xx_HAL_Driver/Src/stm32h7xx_hal_iwdg.c **** 
  30:Drivers/STM32H7xx_HAL_Driver/Src/stm32h7xx_hal_iwdg.c ****     (+) The IWDG is clocked by the Low-Speed Internal clock (LSI) and thus stays
ARM GAS  /var/folders/2r/ldzc7vgx4p51wnq3gxc1dn840000gn/T//cc3qsJyT.s 			page 2


  31:Drivers/STM32H7xx_HAL_Driver/Src/stm32h7xx_hal_iwdg.c ****         active even if the main clock fails.
  32:Drivers/STM32H7xx_HAL_Driver/Src/stm32h7xx_hal_iwdg.c **** 
  33:Drivers/STM32H7xx_HAL_Driver/Src/stm32h7xx_hal_iwdg.c ****     (+) Once the IWDG is started, the LSI is forced ON and both cannot be
  34:Drivers/STM32H7xx_HAL_Driver/Src/stm32h7xx_hal_iwdg.c ****         disabled. The counter starts counting down from the reset value (0xFFF).
  35:Drivers/STM32H7xx_HAL_Driver/Src/stm32h7xx_hal_iwdg.c ****         When it reaches the end of count value (0x000) a reset signal is
  36:Drivers/STM32H7xx_HAL_Driver/Src/stm32h7xx_hal_iwdg.c ****         generated (IWDG reset).
  37:Drivers/STM32H7xx_HAL_Driver/Src/stm32h7xx_hal_iwdg.c **** 
  38:Drivers/STM32H7xx_HAL_Driver/Src/stm32h7xx_hal_iwdg.c ****     (+) Whenever the key value 0x0000 AAAA is written in the IWDG_KR register,
  39:Drivers/STM32H7xx_HAL_Driver/Src/stm32h7xx_hal_iwdg.c ****         the IWDG_RLR value is reloaded into the counter and the watchdog reset
  40:Drivers/STM32H7xx_HAL_Driver/Src/stm32h7xx_hal_iwdg.c ****         is prevented.
  41:Drivers/STM32H7xx_HAL_Driver/Src/stm32h7xx_hal_iwdg.c **** 
  42:Drivers/STM32H7xx_HAL_Driver/Src/stm32h7xx_hal_iwdg.c ****     (+) The IWDG is implemented in the VDD voltage domain that is still functional
  43:Drivers/STM32H7xx_HAL_Driver/Src/stm32h7xx_hal_iwdg.c ****         in STOP and STANDBY mode (IWDG reset can wake up the CPU from STANDBY).
  44:Drivers/STM32H7xx_HAL_Driver/Src/stm32h7xx_hal_iwdg.c ****         IWDGRST flag in RCC_CSR register can be used to inform when an IWDG
  45:Drivers/STM32H7xx_HAL_Driver/Src/stm32h7xx_hal_iwdg.c ****         reset occurs.
  46:Drivers/STM32H7xx_HAL_Driver/Src/stm32h7xx_hal_iwdg.c **** 
  47:Drivers/STM32H7xx_HAL_Driver/Src/stm32h7xx_hal_iwdg.c ****     (+) Debug mode: When the microcontroller enters debug mode (core halted),
  48:Drivers/STM32H7xx_HAL_Driver/Src/stm32h7xx_hal_iwdg.c ****         the IWDG counter either continues to work normally or stops, depending
  49:Drivers/STM32H7xx_HAL_Driver/Src/stm32h7xx_hal_iwdg.c ****         on DBG_IWDG_STOP configuration bit in DBG module, accessible through
  50:Drivers/STM32H7xx_HAL_Driver/Src/stm32h7xx_hal_iwdg.c ****         __HAL_DBGMCU_FREEZE_IWDG1() or __HAL_DBGMCU_FREEZE2_IWDG2() and
  51:Drivers/STM32H7xx_HAL_Driver/Src/stm32h7xx_hal_iwdg.c ****         __HAL_DBGMCU_UnFreeze_IWDG1 or __HAL_DBGMCU_UnFreeze2_IWDG2() macros.
  52:Drivers/STM32H7xx_HAL_Driver/Src/stm32h7xx_hal_iwdg.c **** 
  53:Drivers/STM32H7xx_HAL_Driver/Src/stm32h7xx_hal_iwdg.c ****     [..] Min-max timeout value @32KHz (LSI): ~125us / ~32.7s
  54:Drivers/STM32H7xx_HAL_Driver/Src/stm32h7xx_hal_iwdg.c ****          The IWDG timeout may vary due to LSI clock frequency dispersion.
  55:Drivers/STM32H7xx_HAL_Driver/Src/stm32h7xx_hal_iwdg.c ****          STM32H7xx devices provide the capability to measure the LSI clock
  56:Drivers/STM32H7xx_HAL_Driver/Src/stm32h7xx_hal_iwdg.c ****          frequency (LSI clock is internally connected to TIM16 CH1 input capture).
  57:Drivers/STM32H7xx_HAL_Driver/Src/stm32h7xx_hal_iwdg.c ****          The measured value can be used to have an IWDG timeout with an
  58:Drivers/STM32H7xx_HAL_Driver/Src/stm32h7xx_hal_iwdg.c ****          acceptable accuracy.
  59:Drivers/STM32H7xx_HAL_Driver/Src/stm32h7xx_hal_iwdg.c **** 
  60:Drivers/STM32H7xx_HAL_Driver/Src/stm32h7xx_hal_iwdg.c ****     [..] Default timeout value (necessary for IWDG_SR status register update):
  61:Drivers/STM32H7xx_HAL_Driver/Src/stm32h7xx_hal_iwdg.c ****          Constant LSI_VALUE is defined based on the nominal LSI clock frequency.
  62:Drivers/STM32H7xx_HAL_Driver/Src/stm32h7xx_hal_iwdg.c ****          This frequency being subject to variations as mentioned above, the
  63:Drivers/STM32H7xx_HAL_Driver/Src/stm32h7xx_hal_iwdg.c ****          default timeout value (defined through constant HAL_IWDG_DEFAULT_TIMEOUT
  64:Drivers/STM32H7xx_HAL_Driver/Src/stm32h7xx_hal_iwdg.c ****          below) may become too short or too long.
  65:Drivers/STM32H7xx_HAL_Driver/Src/stm32h7xx_hal_iwdg.c ****          In such cases, this default timeout value can be tuned by redefining
  66:Drivers/STM32H7xx_HAL_Driver/Src/stm32h7xx_hal_iwdg.c ****          the constant LSI_VALUE at user-application level (based, for instance,
  67:Drivers/STM32H7xx_HAL_Driver/Src/stm32h7xx_hal_iwdg.c ****          on the measured LSI clock frequency as explained above).
  68:Drivers/STM32H7xx_HAL_Driver/Src/stm32h7xx_hal_iwdg.c **** 
  69:Drivers/STM32H7xx_HAL_Driver/Src/stm32h7xx_hal_iwdg.c ****                      ##### How to use this driver #####
  70:Drivers/STM32H7xx_HAL_Driver/Src/stm32h7xx_hal_iwdg.c ****   ==============================================================================
  71:Drivers/STM32H7xx_HAL_Driver/Src/stm32h7xx_hal_iwdg.c ****   [..]
  72:Drivers/STM32H7xx_HAL_Driver/Src/stm32h7xx_hal_iwdg.c ****     (#) Use IWDG using HAL_IWDG_Init() function to :
  73:Drivers/STM32H7xx_HAL_Driver/Src/stm32h7xx_hal_iwdg.c ****       (++) Enable instance by writing Start keyword in IWDG_KEY register. LSI
  74:Drivers/STM32H7xx_HAL_Driver/Src/stm32h7xx_hal_iwdg.c ****            clock is forced ON and IWDG counter starts counting down.
  75:Drivers/STM32H7xx_HAL_Driver/Src/stm32h7xx_hal_iwdg.c ****       (++) Enable write access to configuration registers:
  76:Drivers/STM32H7xx_HAL_Driver/Src/stm32h7xx_hal_iwdg.c ****           IWDG_PR, IWDG_RLR and IWDG_WINR.
  77:Drivers/STM32H7xx_HAL_Driver/Src/stm32h7xx_hal_iwdg.c ****       (++) Configure the IWDG prescaler and counter reload value. This reload
  78:Drivers/STM32H7xx_HAL_Driver/Src/stm32h7xx_hal_iwdg.c ****            value will be loaded in the IWDG counter each time the watchdog is
  79:Drivers/STM32H7xx_HAL_Driver/Src/stm32h7xx_hal_iwdg.c ****            reloaded, then the IWDG will start counting down from this value.
  80:Drivers/STM32H7xx_HAL_Driver/Src/stm32h7xx_hal_iwdg.c ****       (++) Depending on window parameter:
  81:Drivers/STM32H7xx_HAL_Driver/Src/stm32h7xx_hal_iwdg.c ****         (+++) If Window Init parameter is same as Window register value,
  82:Drivers/STM32H7xx_HAL_Driver/Src/stm32h7xx_hal_iwdg.c ****              nothing more is done but reload counter value in order to exit
  83:Drivers/STM32H7xx_HAL_Driver/Src/stm32h7xx_hal_iwdg.c ****              function with exact time base.
  84:Drivers/STM32H7xx_HAL_Driver/Src/stm32h7xx_hal_iwdg.c ****         (+++) Else modify Window register. This will automatically reload
  85:Drivers/STM32H7xx_HAL_Driver/Src/stm32h7xx_hal_iwdg.c ****              watchdog counter.
  86:Drivers/STM32H7xx_HAL_Driver/Src/stm32h7xx_hal_iwdg.c ****       (++) Wait for status flags to be reset.
  87:Drivers/STM32H7xx_HAL_Driver/Src/stm32h7xx_hal_iwdg.c **** 
ARM GAS  /var/folders/2r/ldzc7vgx4p51wnq3gxc1dn840000gn/T//cc3qsJyT.s 			page 3


  88:Drivers/STM32H7xx_HAL_Driver/Src/stm32h7xx_hal_iwdg.c ****     (#) Then the application program must refresh the IWDG counter at regular
  89:Drivers/STM32H7xx_HAL_Driver/Src/stm32h7xx_hal_iwdg.c ****         intervals during normal operation to prevent an MCU reset, using
  90:Drivers/STM32H7xx_HAL_Driver/Src/stm32h7xx_hal_iwdg.c ****         HAL_IWDG_Refresh() function.
  91:Drivers/STM32H7xx_HAL_Driver/Src/stm32h7xx_hal_iwdg.c **** 
  92:Drivers/STM32H7xx_HAL_Driver/Src/stm32h7xx_hal_iwdg.c ****      *** IWDG HAL driver macros list ***
  93:Drivers/STM32H7xx_HAL_Driver/Src/stm32h7xx_hal_iwdg.c ****      ====================================
  94:Drivers/STM32H7xx_HAL_Driver/Src/stm32h7xx_hal_iwdg.c ****      [..]
  95:Drivers/STM32H7xx_HAL_Driver/Src/stm32h7xx_hal_iwdg.c ****        Below the list of most used macros in IWDG HAL driver:
  96:Drivers/STM32H7xx_HAL_Driver/Src/stm32h7xx_hal_iwdg.c ****       (+) __HAL_IWDG_START: Enable the IWDG peripheral
  97:Drivers/STM32H7xx_HAL_Driver/Src/stm32h7xx_hal_iwdg.c ****       (+) __HAL_IWDG_RELOAD_COUNTER: Reloads IWDG counter with value defined in
  98:Drivers/STM32H7xx_HAL_Driver/Src/stm32h7xx_hal_iwdg.c ****           the reload register
  99:Drivers/STM32H7xx_HAL_Driver/Src/stm32h7xx_hal_iwdg.c **** 
 100:Drivers/STM32H7xx_HAL_Driver/Src/stm32h7xx_hal_iwdg.c ****   @endverbatim
 101:Drivers/STM32H7xx_HAL_Driver/Src/stm32h7xx_hal_iwdg.c ****   */
 102:Drivers/STM32H7xx_HAL_Driver/Src/stm32h7xx_hal_iwdg.c **** 
 103:Drivers/STM32H7xx_HAL_Driver/Src/stm32h7xx_hal_iwdg.c **** /* Includes ------------------------------------------------------------------*/
 104:Drivers/STM32H7xx_HAL_Driver/Src/stm32h7xx_hal_iwdg.c **** #include "stm32h7xx_hal.h"
 105:Drivers/STM32H7xx_HAL_Driver/Src/stm32h7xx_hal_iwdg.c **** 
 106:Drivers/STM32H7xx_HAL_Driver/Src/stm32h7xx_hal_iwdg.c **** /** @addtogroup STM32H7xx_HAL_Driver
 107:Drivers/STM32H7xx_HAL_Driver/Src/stm32h7xx_hal_iwdg.c ****   * @{
 108:Drivers/STM32H7xx_HAL_Driver/Src/stm32h7xx_hal_iwdg.c ****   */
 109:Drivers/STM32H7xx_HAL_Driver/Src/stm32h7xx_hal_iwdg.c **** 
 110:Drivers/STM32H7xx_HAL_Driver/Src/stm32h7xx_hal_iwdg.c **** #ifdef HAL_IWDG_MODULE_ENABLED
 111:Drivers/STM32H7xx_HAL_Driver/Src/stm32h7xx_hal_iwdg.c **** /** @addtogroup IWDG
 112:Drivers/STM32H7xx_HAL_Driver/Src/stm32h7xx_hal_iwdg.c ****   * @brief IWDG HAL module driver.
 113:Drivers/STM32H7xx_HAL_Driver/Src/stm32h7xx_hal_iwdg.c ****   * @{
 114:Drivers/STM32H7xx_HAL_Driver/Src/stm32h7xx_hal_iwdg.c ****   */
 115:Drivers/STM32H7xx_HAL_Driver/Src/stm32h7xx_hal_iwdg.c **** 
 116:Drivers/STM32H7xx_HAL_Driver/Src/stm32h7xx_hal_iwdg.c **** /* Private typedef -----------------------------------------------------------*/
 117:Drivers/STM32H7xx_HAL_Driver/Src/stm32h7xx_hal_iwdg.c **** /* Private define ------------------------------------------------------------*/
 118:Drivers/STM32H7xx_HAL_Driver/Src/stm32h7xx_hal_iwdg.c **** /** @defgroup IWDG_Private_Defines IWDG Private Defines
 119:Drivers/STM32H7xx_HAL_Driver/Src/stm32h7xx_hal_iwdg.c ****   * @{
 120:Drivers/STM32H7xx_HAL_Driver/Src/stm32h7xx_hal_iwdg.c ****   */
 121:Drivers/STM32H7xx_HAL_Driver/Src/stm32h7xx_hal_iwdg.c **** /* Status register needs up to 5 LSI clock periods divided by the clock
 122:Drivers/STM32H7xx_HAL_Driver/Src/stm32h7xx_hal_iwdg.c ****    prescaler to be updated. The number of LSI clock periods is upper-rounded to
 123:Drivers/STM32H7xx_HAL_Driver/Src/stm32h7xx_hal_iwdg.c ****    6 for the timeout value calculation.
 124:Drivers/STM32H7xx_HAL_Driver/Src/stm32h7xx_hal_iwdg.c ****    The timeout value is calculated using the highest prescaler (256) and
 125:Drivers/STM32H7xx_HAL_Driver/Src/stm32h7xx_hal_iwdg.c ****    the LSI_VALUE constant. The value of this constant can be changed by the user
 126:Drivers/STM32H7xx_HAL_Driver/Src/stm32h7xx_hal_iwdg.c ****    to take into account possible LSI clock period variations.
 127:Drivers/STM32H7xx_HAL_Driver/Src/stm32h7xx_hal_iwdg.c ****    The timeout value is multiplied by 1000 to be converted in milliseconds.
 128:Drivers/STM32H7xx_HAL_Driver/Src/stm32h7xx_hal_iwdg.c ****    LSI startup time is also considered here by adding LSI_STARTUP_TIME
 129:Drivers/STM32H7xx_HAL_Driver/Src/stm32h7xx_hal_iwdg.c ****    converted in milliseconds. */
 130:Drivers/STM32H7xx_HAL_Driver/Src/stm32h7xx_hal_iwdg.c **** #define HAL_IWDG_DEFAULT_TIMEOUT        (((6UL * 256UL * 1000UL) / (LSI_VALUE / 128U)) + \
 131:Drivers/STM32H7xx_HAL_Driver/Src/stm32h7xx_hal_iwdg.c ****                                          ((LSI_STARTUP_TIME / 1000UL) + 1UL))
 132:Drivers/STM32H7xx_HAL_Driver/Src/stm32h7xx_hal_iwdg.c **** #define IWDG_KERNEL_UPDATE_FLAGS        (IWDG_SR_WVU | IWDG_SR_RVU | IWDG_SR_PVU)
 133:Drivers/STM32H7xx_HAL_Driver/Src/stm32h7xx_hal_iwdg.c **** /**
 134:Drivers/STM32H7xx_HAL_Driver/Src/stm32h7xx_hal_iwdg.c ****   * @}
 135:Drivers/STM32H7xx_HAL_Driver/Src/stm32h7xx_hal_iwdg.c ****   */
 136:Drivers/STM32H7xx_HAL_Driver/Src/stm32h7xx_hal_iwdg.c **** 
 137:Drivers/STM32H7xx_HAL_Driver/Src/stm32h7xx_hal_iwdg.c **** /* Private macro -------------------------------------------------------------*/
 138:Drivers/STM32H7xx_HAL_Driver/Src/stm32h7xx_hal_iwdg.c **** /* Private variables ---------------------------------------------------------*/
 139:Drivers/STM32H7xx_HAL_Driver/Src/stm32h7xx_hal_iwdg.c **** /* Private function prototypes -----------------------------------------------*/
 140:Drivers/STM32H7xx_HAL_Driver/Src/stm32h7xx_hal_iwdg.c **** /* Exported functions --------------------------------------------------------*/
 141:Drivers/STM32H7xx_HAL_Driver/Src/stm32h7xx_hal_iwdg.c **** 
 142:Drivers/STM32H7xx_HAL_Driver/Src/stm32h7xx_hal_iwdg.c **** /** @addtogroup IWDG_Exported_Functions
 143:Drivers/STM32H7xx_HAL_Driver/Src/stm32h7xx_hal_iwdg.c ****   * @{
 144:Drivers/STM32H7xx_HAL_Driver/Src/stm32h7xx_hal_iwdg.c ****   */
ARM GAS  /var/folders/2r/ldzc7vgx4p51wnq3gxc1dn840000gn/T//cc3qsJyT.s 			page 4


 145:Drivers/STM32H7xx_HAL_Driver/Src/stm32h7xx_hal_iwdg.c **** 
 146:Drivers/STM32H7xx_HAL_Driver/Src/stm32h7xx_hal_iwdg.c **** /** @addtogroup IWDG_Exported_Functions_Group1
 147:Drivers/STM32H7xx_HAL_Driver/Src/stm32h7xx_hal_iwdg.c ****   *  @brief    Initialization and Start functions.
 148:Drivers/STM32H7xx_HAL_Driver/Src/stm32h7xx_hal_iwdg.c ****   *
 149:Drivers/STM32H7xx_HAL_Driver/Src/stm32h7xx_hal_iwdg.c **** @verbatim
 150:Drivers/STM32H7xx_HAL_Driver/Src/stm32h7xx_hal_iwdg.c ****  ===============================================================================
 151:Drivers/STM32H7xx_HAL_Driver/Src/stm32h7xx_hal_iwdg.c ****           ##### Initialization and Start functions #####
 152:Drivers/STM32H7xx_HAL_Driver/Src/stm32h7xx_hal_iwdg.c ****  ===============================================================================
 153:Drivers/STM32H7xx_HAL_Driver/Src/stm32h7xx_hal_iwdg.c ****  [..]  This section provides functions allowing to:
 154:Drivers/STM32H7xx_HAL_Driver/Src/stm32h7xx_hal_iwdg.c ****       (+) Initialize the IWDG according to the specified parameters in the
 155:Drivers/STM32H7xx_HAL_Driver/Src/stm32h7xx_hal_iwdg.c ****           IWDG_InitTypeDef of associated handle.
 156:Drivers/STM32H7xx_HAL_Driver/Src/stm32h7xx_hal_iwdg.c ****       (+) Manage Window option.
 157:Drivers/STM32H7xx_HAL_Driver/Src/stm32h7xx_hal_iwdg.c ****       (+) Once initialization is performed in HAL_IWDG_Init function, Watchdog
 158:Drivers/STM32H7xx_HAL_Driver/Src/stm32h7xx_hal_iwdg.c ****           is reloaded in order to exit function with correct time base.
 159:Drivers/STM32H7xx_HAL_Driver/Src/stm32h7xx_hal_iwdg.c **** 
 160:Drivers/STM32H7xx_HAL_Driver/Src/stm32h7xx_hal_iwdg.c **** @endverbatim
 161:Drivers/STM32H7xx_HAL_Driver/Src/stm32h7xx_hal_iwdg.c ****   * @{
 162:Drivers/STM32H7xx_HAL_Driver/Src/stm32h7xx_hal_iwdg.c ****   */
 163:Drivers/STM32H7xx_HAL_Driver/Src/stm32h7xx_hal_iwdg.c **** 
 164:Drivers/STM32H7xx_HAL_Driver/Src/stm32h7xx_hal_iwdg.c **** /**
 165:Drivers/STM32H7xx_HAL_Driver/Src/stm32h7xx_hal_iwdg.c ****   * @brief  Initialize the IWDG according to the specified parameters in the
 166:Drivers/STM32H7xx_HAL_Driver/Src/stm32h7xx_hal_iwdg.c ****   *         IWDG_InitTypeDef and start watchdog. Before exiting function,
 167:Drivers/STM32H7xx_HAL_Driver/Src/stm32h7xx_hal_iwdg.c ****   *         watchdog is refreshed in order to have correct time base.
 168:Drivers/STM32H7xx_HAL_Driver/Src/stm32h7xx_hal_iwdg.c ****   * @param  hiwdg  pointer to a IWDG_HandleTypeDef structure that contains
 169:Drivers/STM32H7xx_HAL_Driver/Src/stm32h7xx_hal_iwdg.c ****   *                the configuration information for the specified IWDG module.
 170:Drivers/STM32H7xx_HAL_Driver/Src/stm32h7xx_hal_iwdg.c ****   * @retval HAL status
 171:Drivers/STM32H7xx_HAL_Driver/Src/stm32h7xx_hal_iwdg.c ****   */
 172:Drivers/STM32H7xx_HAL_Driver/Src/stm32h7xx_hal_iwdg.c **** HAL_StatusTypeDef HAL_IWDG_Init(IWDG_HandleTypeDef *hiwdg)
 173:Drivers/STM32H7xx_HAL_Driver/Src/stm32h7xx_hal_iwdg.c **** {
  29              		.loc 1 173 1 view -0
  30              		.cfi_startproc
  31              		@ args = 0, pretend = 0, frame = 0
  32              		@ frame_needed = 0, uses_anonymous_args = 0
 174:Drivers/STM32H7xx_HAL_Driver/Src/stm32h7xx_hal_iwdg.c ****   uint32_t tickstart;
  33              		.loc 1 174 3 view .LVU1
 175:Drivers/STM32H7xx_HAL_Driver/Src/stm32h7xx_hal_iwdg.c **** 
 176:Drivers/STM32H7xx_HAL_Driver/Src/stm32h7xx_hal_iwdg.c ****   /* Check the IWDG handle allocation */
 177:Drivers/STM32H7xx_HAL_Driver/Src/stm32h7xx_hal_iwdg.c ****   if (hiwdg == NULL)
  34              		.loc 1 177 3 view .LVU2
  35              		.loc 1 177 6 is_stmt 0 view .LVU3
  36 0000 0028     		cmp	r0, #0
  37 0002 31D0     		beq	.L6
 173:Drivers/STM32H7xx_HAL_Driver/Src/stm32h7xx_hal_iwdg.c ****   uint32_t tickstart;
  38              		.loc 1 173 1 view .LVU4
  39 0004 38B5     		push	{r3, r4, r5, lr}
  40              	.LCFI0:
  41              		.cfi_def_cfa_offset 16
  42              		.cfi_offset 3, -16
  43              		.cfi_offset 4, -12
  44              		.cfi_offset 5, -8
  45              		.cfi_offset 14, -4
  46 0006 0446     		mov	r4, r0
 178:Drivers/STM32H7xx_HAL_Driver/Src/stm32h7xx_hal_iwdg.c ****   {
 179:Drivers/STM32H7xx_HAL_Driver/Src/stm32h7xx_hal_iwdg.c ****     return HAL_ERROR;
 180:Drivers/STM32H7xx_HAL_Driver/Src/stm32h7xx_hal_iwdg.c ****   }
 181:Drivers/STM32H7xx_HAL_Driver/Src/stm32h7xx_hal_iwdg.c **** 
 182:Drivers/STM32H7xx_HAL_Driver/Src/stm32h7xx_hal_iwdg.c ****   /* Check the parameters */
ARM GAS  /var/folders/2r/ldzc7vgx4p51wnq3gxc1dn840000gn/T//cc3qsJyT.s 			page 5


 183:Drivers/STM32H7xx_HAL_Driver/Src/stm32h7xx_hal_iwdg.c ****   assert_param(IS_IWDG_ALL_INSTANCE(hiwdg->Instance));
  47              		.loc 1 183 3 is_stmt 1 view .LVU5
 184:Drivers/STM32H7xx_HAL_Driver/Src/stm32h7xx_hal_iwdg.c ****   assert_param(IS_IWDG_PRESCALER(hiwdg->Init.Prescaler));
  48              		.loc 1 184 3 view .LVU6
 185:Drivers/STM32H7xx_HAL_Driver/Src/stm32h7xx_hal_iwdg.c ****   assert_param(IS_IWDG_RELOAD(hiwdg->Init.Reload));
  49              		.loc 1 185 3 view .LVU7
 186:Drivers/STM32H7xx_HAL_Driver/Src/stm32h7xx_hal_iwdg.c ****   assert_param(IS_IWDG_WINDOW(hiwdg->Init.Window));
  50              		.loc 1 186 3 view .LVU8
 187:Drivers/STM32H7xx_HAL_Driver/Src/stm32h7xx_hal_iwdg.c **** 
 188:Drivers/STM32H7xx_HAL_Driver/Src/stm32h7xx_hal_iwdg.c ****   /* Enable IWDG. LSI is turned on automatically */
 189:Drivers/STM32H7xx_HAL_Driver/Src/stm32h7xx_hal_iwdg.c ****   __HAL_IWDG_START(hiwdg);
  51              		.loc 1 189 3 view .LVU9
  52 0008 0368     		ldr	r3, [r0]
  53 000a 4CF6CC42 		movw	r2, #52428
  54 000e 1A60     		str	r2, [r3]
 190:Drivers/STM32H7xx_HAL_Driver/Src/stm32h7xx_hal_iwdg.c **** 
 191:Drivers/STM32H7xx_HAL_Driver/Src/stm32h7xx_hal_iwdg.c ****   /* Enable write access to IWDG_PR, IWDG_RLR and IWDG_WINR registers by writing
 192:Drivers/STM32H7xx_HAL_Driver/Src/stm32h7xx_hal_iwdg.c ****   0x5555 in KR */
 193:Drivers/STM32H7xx_HAL_Driver/Src/stm32h7xx_hal_iwdg.c ****   IWDG_ENABLE_WRITE_ACCESS(hiwdg);
  55              		.loc 1 193 3 view .LVU10
  56 0010 0368     		ldr	r3, [r0]
  57 0012 45F25552 		movw	r2, #21845
  58 0016 1A60     		str	r2, [r3]
 194:Drivers/STM32H7xx_HAL_Driver/Src/stm32h7xx_hal_iwdg.c **** 
 195:Drivers/STM32H7xx_HAL_Driver/Src/stm32h7xx_hal_iwdg.c ****   /* Write to IWDG registers the Prescaler & Reload values to work with */
 196:Drivers/STM32H7xx_HAL_Driver/Src/stm32h7xx_hal_iwdg.c ****   hiwdg->Instance->PR = hiwdg->Init.Prescaler;
  59              		.loc 1 196 3 view .LVU11
  60              		.loc 1 196 8 is_stmt 0 view .LVU12
  61 0018 0368     		ldr	r3, [r0]
  62              		.loc 1 196 36 view .LVU13
  63 001a 4268     		ldr	r2, [r0, #4]
  64              		.loc 1 196 23 view .LVU14
  65 001c 5A60     		str	r2, [r3, #4]
 197:Drivers/STM32H7xx_HAL_Driver/Src/stm32h7xx_hal_iwdg.c ****   hiwdg->Instance->RLR = hiwdg->Init.Reload;
  66              		.loc 1 197 3 is_stmt 1 view .LVU15
  67              		.loc 1 197 8 is_stmt 0 view .LVU16
  68 001e 0368     		ldr	r3, [r0]
  69              		.loc 1 197 37 view .LVU17
  70 0020 8268     		ldr	r2, [r0, #8]
  71              		.loc 1 197 24 view .LVU18
  72 0022 9A60     		str	r2, [r3, #8]
 198:Drivers/STM32H7xx_HAL_Driver/Src/stm32h7xx_hal_iwdg.c **** 
 199:Drivers/STM32H7xx_HAL_Driver/Src/stm32h7xx_hal_iwdg.c ****   /* Check pending flag, if previous update not done, return timeout */
 200:Drivers/STM32H7xx_HAL_Driver/Src/stm32h7xx_hal_iwdg.c ****   tickstart = HAL_GetTick();
  73              		.loc 1 200 3 is_stmt 1 view .LVU19
  74              		.loc 1 200 15 is_stmt 0 view .LVU20
  75 0024 FFF7FEFF 		bl	HAL_GetTick
  76              	.LVL1:
  77              		.loc 1 200 15 view .LVU21
  78 0028 0546     		mov	r5, r0
  79              	.LVL2:
 201:Drivers/STM32H7xx_HAL_Driver/Src/stm32h7xx_hal_iwdg.c **** 
 202:Drivers/STM32H7xx_HAL_Driver/Src/stm32h7xx_hal_iwdg.c ****   /* Wait for register to be updated */
 203:Drivers/STM32H7xx_HAL_Driver/Src/stm32h7xx_hal_iwdg.c ****   while ((hiwdg->Instance->SR & IWDG_KERNEL_UPDATE_FLAGS) != 0x00u)
  80              		.loc 1 203 3 is_stmt 1 view .LVU22
  81              	.L3:
  82              		.loc 1 203 59 view .LVU23
ARM GAS  /var/folders/2r/ldzc7vgx4p51wnq3gxc1dn840000gn/T//cc3qsJyT.s 			page 6


  83              		.loc 1 203 16 is_stmt 0 view .LVU24
  84 002a 2368     		ldr	r3, [r4]
  85              		.loc 1 203 26 view .LVU25
  86 002c DA68     		ldr	r2, [r3, #12]
  87              		.loc 1 203 59 view .LVU26
  88 002e 12F0070F 		tst	r2, #7
  89 0032 0DD0     		beq	.L12
 204:Drivers/STM32H7xx_HAL_Driver/Src/stm32h7xx_hal_iwdg.c ****   {
 205:Drivers/STM32H7xx_HAL_Driver/Src/stm32h7xx_hal_iwdg.c ****     if ((HAL_GetTick() - tickstart) > HAL_IWDG_DEFAULT_TIMEOUT)
  90              		.loc 1 205 5 is_stmt 1 view .LVU27
  91              		.loc 1 205 10 is_stmt 0 view .LVU28
  92 0034 FFF7FEFF 		bl	HAL_GetTick
  93              	.LVL3:
  94              		.loc 1 205 24 discriminator 1 view .LVU29
  95 0038 401B     		subs	r0, r0, r5
  96              		.loc 1 205 8 discriminator 1 view .LVU30
  97 003a 41F60103 		movw	r3, #6145
  98 003e 9842     		cmp	r0, r3
  99 0040 F3D9     		bls	.L3
 206:Drivers/STM32H7xx_HAL_Driver/Src/stm32h7xx_hal_iwdg.c ****     {
 207:Drivers/STM32H7xx_HAL_Driver/Src/stm32h7xx_hal_iwdg.c ****       if ((hiwdg->Instance->SR & IWDG_KERNEL_UPDATE_FLAGS) != 0x00u)
 100              		.loc 1 207 7 is_stmt 1 view .LVU31
 101              		.loc 1 207 17 is_stmt 0 view .LVU32
 102 0042 2368     		ldr	r3, [r4]
 103              		.loc 1 207 27 view .LVU33
 104 0044 DB68     		ldr	r3, [r3, #12]
 105              		.loc 1 207 10 view .LVU34
 106 0046 13F0070F 		tst	r3, #7
 107 004a EED0     		beq	.L3
 208:Drivers/STM32H7xx_HAL_Driver/Src/stm32h7xx_hal_iwdg.c ****       {
 209:Drivers/STM32H7xx_HAL_Driver/Src/stm32h7xx_hal_iwdg.c ****         return HAL_TIMEOUT;
 108              		.loc 1 209 16 view .LVU35
 109 004c 0320     		movs	r0, #3
 110 004e 05E0     		b	.L2
 111              	.L12:
 210:Drivers/STM32H7xx_HAL_Driver/Src/stm32h7xx_hal_iwdg.c ****       }
 211:Drivers/STM32H7xx_HAL_Driver/Src/stm32h7xx_hal_iwdg.c ****     }
 212:Drivers/STM32H7xx_HAL_Driver/Src/stm32h7xx_hal_iwdg.c ****   }
 213:Drivers/STM32H7xx_HAL_Driver/Src/stm32h7xx_hal_iwdg.c **** 
 214:Drivers/STM32H7xx_HAL_Driver/Src/stm32h7xx_hal_iwdg.c ****   /* If window parameter is different than current value, modify window
 215:Drivers/STM32H7xx_HAL_Driver/Src/stm32h7xx_hal_iwdg.c ****   register */
 216:Drivers/STM32H7xx_HAL_Driver/Src/stm32h7xx_hal_iwdg.c ****   if (hiwdg->Instance->WINR != hiwdg->Init.Window)
 112              		.loc 1 216 3 is_stmt 1 view .LVU36
 113              		.loc 1 216 22 is_stmt 0 view .LVU37
 114 0050 1969     		ldr	r1, [r3, #16]
 115              		.loc 1 216 43 view .LVU38
 116 0052 E268     		ldr	r2, [r4, #12]
 117              		.loc 1 216 6 view .LVU39
 118 0054 9142     		cmp	r1, r2
 119 0056 02D0     		beq	.L5
 217:Drivers/STM32H7xx_HAL_Driver/Src/stm32h7xx_hal_iwdg.c ****   {
 218:Drivers/STM32H7xx_HAL_Driver/Src/stm32h7xx_hal_iwdg.c ****     /* Write to IWDG WINR the IWDG_Window value to compare with. In any case,
 219:Drivers/STM32H7xx_HAL_Driver/Src/stm32h7xx_hal_iwdg.c ****     even if window feature is disabled, Watchdog will be reloaded by writing
 220:Drivers/STM32H7xx_HAL_Driver/Src/stm32h7xx_hal_iwdg.c ****     windows register */
 221:Drivers/STM32H7xx_HAL_Driver/Src/stm32h7xx_hal_iwdg.c ****     hiwdg->Instance->WINR = hiwdg->Init.Window;
 120              		.loc 1 221 5 is_stmt 1 view .LVU40
 121              		.loc 1 221 27 is_stmt 0 view .LVU41
ARM GAS  /var/folders/2r/ldzc7vgx4p51wnq3gxc1dn840000gn/T//cc3qsJyT.s 			page 7


 122 0058 1A61     		str	r2, [r3, #16]
 222:Drivers/STM32H7xx_HAL_Driver/Src/stm32h7xx_hal_iwdg.c ****   }
 223:Drivers/STM32H7xx_HAL_Driver/Src/stm32h7xx_hal_iwdg.c ****   else
 224:Drivers/STM32H7xx_HAL_Driver/Src/stm32h7xx_hal_iwdg.c ****   {
 225:Drivers/STM32H7xx_HAL_Driver/Src/stm32h7xx_hal_iwdg.c ****     /* Reload IWDG counter with value defined in the reload register */
 226:Drivers/STM32H7xx_HAL_Driver/Src/stm32h7xx_hal_iwdg.c ****     __HAL_IWDG_RELOAD_COUNTER(hiwdg);
 227:Drivers/STM32H7xx_HAL_Driver/Src/stm32h7xx_hal_iwdg.c ****   }
 228:Drivers/STM32H7xx_HAL_Driver/Src/stm32h7xx_hal_iwdg.c **** 
 229:Drivers/STM32H7xx_HAL_Driver/Src/stm32h7xx_hal_iwdg.c ****   /* Return function status */
 230:Drivers/STM32H7xx_HAL_Driver/Src/stm32h7xx_hal_iwdg.c ****   return HAL_OK;
 123              		.loc 1 230 10 view .LVU42
 124 005a 0020     		movs	r0, #0
 125              	.L2:
 231:Drivers/STM32H7xx_HAL_Driver/Src/stm32h7xx_hal_iwdg.c **** }
 126              		.loc 1 231 1 view .LVU43
 127 005c 38BD     		pop	{r3, r4, r5, pc}
 128              	.LVL4:
 129              	.L5:
 226:Drivers/STM32H7xx_HAL_Driver/Src/stm32h7xx_hal_iwdg.c ****   }
 130              		.loc 1 226 5 is_stmt 1 view .LVU44
 131 005e 4AF6AA22 		movw	r2, #43690
 132 0062 1A60     		str	r2, [r3]
 230:Drivers/STM32H7xx_HAL_Driver/Src/stm32h7xx_hal_iwdg.c **** }
 133              		.loc 1 230 10 is_stmt 0 view .LVU45
 134 0064 0020     		movs	r0, #0
 135 0066 F9E7     		b	.L2
 136              	.LVL5:
 137              	.L6:
 138              	.LCFI1:
 139              		.cfi_def_cfa_offset 0
 140              		.cfi_restore 3
 141              		.cfi_restore 4
 142              		.cfi_restore 5
 143              		.cfi_restore 14
 179:Drivers/STM32H7xx_HAL_Driver/Src/stm32h7xx_hal_iwdg.c ****   }
 144              		.loc 1 179 12 view .LVU46
 145 0068 0120     		movs	r0, #1
 146              	.LVL6:
 147              		.loc 1 231 1 view .LVU47
 148 006a 7047     		bx	lr
 149              		.cfi_endproc
 150              	.LFE350:
 152              		.section	.text.HAL_IWDG_Refresh,"ax",%progbits
 153              		.align	1
 154              		.global	HAL_IWDG_Refresh
 155              		.syntax unified
 156              		.thumb
 157              		.thumb_func
 159              	HAL_IWDG_Refresh:
 160              	.LVL7:
 161              	.LFB351:
 232:Drivers/STM32H7xx_HAL_Driver/Src/stm32h7xx_hal_iwdg.c **** 
 233:Drivers/STM32H7xx_HAL_Driver/Src/stm32h7xx_hal_iwdg.c **** 
 234:Drivers/STM32H7xx_HAL_Driver/Src/stm32h7xx_hal_iwdg.c **** /**
 235:Drivers/STM32H7xx_HAL_Driver/Src/stm32h7xx_hal_iwdg.c ****   * @}
 236:Drivers/STM32H7xx_HAL_Driver/Src/stm32h7xx_hal_iwdg.c ****   */
 237:Drivers/STM32H7xx_HAL_Driver/Src/stm32h7xx_hal_iwdg.c **** 
ARM GAS  /var/folders/2r/ldzc7vgx4p51wnq3gxc1dn840000gn/T//cc3qsJyT.s 			page 8


 238:Drivers/STM32H7xx_HAL_Driver/Src/stm32h7xx_hal_iwdg.c **** 
 239:Drivers/STM32H7xx_HAL_Driver/Src/stm32h7xx_hal_iwdg.c **** /** @addtogroup IWDG_Exported_Functions_Group2
 240:Drivers/STM32H7xx_HAL_Driver/Src/stm32h7xx_hal_iwdg.c ****   *  @brief   IO operation functions
 241:Drivers/STM32H7xx_HAL_Driver/Src/stm32h7xx_hal_iwdg.c ****   *
 242:Drivers/STM32H7xx_HAL_Driver/Src/stm32h7xx_hal_iwdg.c **** @verbatim
 243:Drivers/STM32H7xx_HAL_Driver/Src/stm32h7xx_hal_iwdg.c ****  ===============================================================================
 244:Drivers/STM32H7xx_HAL_Driver/Src/stm32h7xx_hal_iwdg.c ****                       ##### IO operation functions #####
 245:Drivers/STM32H7xx_HAL_Driver/Src/stm32h7xx_hal_iwdg.c ****  ===============================================================================
 246:Drivers/STM32H7xx_HAL_Driver/Src/stm32h7xx_hal_iwdg.c ****  [..]  This section provides functions allowing to:
 247:Drivers/STM32H7xx_HAL_Driver/Src/stm32h7xx_hal_iwdg.c ****       (+) Refresh the IWDG.
 248:Drivers/STM32H7xx_HAL_Driver/Src/stm32h7xx_hal_iwdg.c **** 
 249:Drivers/STM32H7xx_HAL_Driver/Src/stm32h7xx_hal_iwdg.c **** @endverbatim
 250:Drivers/STM32H7xx_HAL_Driver/Src/stm32h7xx_hal_iwdg.c ****   * @{
 251:Drivers/STM32H7xx_HAL_Driver/Src/stm32h7xx_hal_iwdg.c ****   */
 252:Drivers/STM32H7xx_HAL_Driver/Src/stm32h7xx_hal_iwdg.c **** 
 253:Drivers/STM32H7xx_HAL_Driver/Src/stm32h7xx_hal_iwdg.c **** /**
 254:Drivers/STM32H7xx_HAL_Driver/Src/stm32h7xx_hal_iwdg.c ****   * @brief  Refresh the IWDG.
 255:Drivers/STM32H7xx_HAL_Driver/Src/stm32h7xx_hal_iwdg.c ****   * @param  hiwdg  pointer to a IWDG_HandleTypeDef structure that contains
 256:Drivers/STM32H7xx_HAL_Driver/Src/stm32h7xx_hal_iwdg.c ****   *                the configuration information for the specified IWDG module.
 257:Drivers/STM32H7xx_HAL_Driver/Src/stm32h7xx_hal_iwdg.c ****   * @retval HAL status
 258:Drivers/STM32H7xx_HAL_Driver/Src/stm32h7xx_hal_iwdg.c ****   */
 259:Drivers/STM32H7xx_HAL_Driver/Src/stm32h7xx_hal_iwdg.c **** HAL_StatusTypeDef HAL_IWDG_Refresh(IWDG_HandleTypeDef *hiwdg)
 260:Drivers/STM32H7xx_HAL_Driver/Src/stm32h7xx_hal_iwdg.c **** {
 162              		.loc 1 260 1 is_stmt 1 view -0
 163              		.cfi_startproc
 164              		@ args = 0, pretend = 0, frame = 0
 165              		@ frame_needed = 0, uses_anonymous_args = 0
 166              		@ link register save eliminated.
 261:Drivers/STM32H7xx_HAL_Driver/Src/stm32h7xx_hal_iwdg.c ****   /* Reload IWDG counter with value defined in the reload register */
 262:Drivers/STM32H7xx_HAL_Driver/Src/stm32h7xx_hal_iwdg.c ****   __HAL_IWDG_RELOAD_COUNTER(hiwdg);
 167              		.loc 1 262 3 view .LVU49
 168 0000 0368     		ldr	r3, [r0]
 169 0002 4AF6AA22 		movw	r2, #43690
 170 0006 1A60     		str	r2, [r3]
 263:Drivers/STM32H7xx_HAL_Driver/Src/stm32h7xx_hal_iwdg.c **** 
 264:Drivers/STM32H7xx_HAL_Driver/Src/stm32h7xx_hal_iwdg.c ****   /* Return function status */
 265:Drivers/STM32H7xx_HAL_Driver/Src/stm32h7xx_hal_iwdg.c ****   return HAL_OK;
 171              		.loc 1 265 3 view .LVU50
 266:Drivers/STM32H7xx_HAL_Driver/Src/stm32h7xx_hal_iwdg.c **** }
 172              		.loc 1 266 1 is_stmt 0 view .LVU51
 173 0008 0020     		movs	r0, #0
 174              	.LVL8:
 175              		.loc 1 266 1 view .LVU52
 176 000a 7047     		bx	lr
 177              		.cfi_endproc
 178              	.LFE351:
 180              		.text
 181              	.Letext0:
 182              		.file 2 "/Applications/ArmGNUToolchain/14.2.rel1/arm-none-eabi/arm-none-eabi/include/machine/_defa
 183              		.file 3 "/Applications/ArmGNUToolchain/14.2.rel1/arm-none-eabi/arm-none-eabi/include/sys/_stdint.h
 184              		.file 4 "Drivers/CMSIS/Device/ST/STM32H7xx/Include/stm32h723xx.h"
 185              		.file 5 "Drivers/STM32H7xx_HAL_Driver/Inc/stm32h7xx_hal_def.h"
 186              		.file 6 "Drivers/STM32H7xx_HAL_Driver/Inc/stm32h7xx_hal_iwdg.h"
 187              		.file 7 "Drivers/STM32H7xx_HAL_Driver/Inc/stm32h7xx_hal.h"
ARM GAS  /var/folders/2r/ldzc7vgx4p51wnq3gxc1dn840000gn/T//cc3qsJyT.s 			page 9

