ARM GAS  /var/folders/2r/ldzc7vgx4p51wnq3gxc1dn840000gn/T//cc5wJlMF.s 			page 1


   1              		.cpu cortex-m7
   2              		.arch armv7e-m
   3              		.fpu fpv5-d16
   4              		.eabi_attribute 28, 1
   5              		.eabi_attribute 20, 1
   6              		.eabi_attribute 21, 1
   7              		.eabi_attribute 23, 3
   8              		.eabi_attribute 24, 1
   9              		.eabi_attribute 25, 1
  10              		.eabi_attribute 26, 1
  11              		.eabi_attribute 30, 1
  12              		.eabi_attribute 34, 1
  13              		.eabi_attribute 18, 4
  14              		.file	"stm32h7xx_hal_crc.c"
  15              		.text
  16              	.Ltext0:
  17              		.cfi_sections	.debug_frame
  18              		.file 1 "Drivers/STM32H7xx_HAL_Driver/Src/stm32h7xx_hal_crc.c"
  19              		.section	.text.CRC_Handle_8,"ax",%progbits
  20              		.align	1
  21              		.syntax unified
  22              		.thumb
  23              		.thumb_func
  25              	CRC_Handle_8:
  26              	.LVL0:
  27              	.LFB357:
   1:Drivers/STM32H7xx_HAL_Driver/Src/stm32h7xx_hal_crc.c **** /**
   2:Drivers/STM32H7xx_HAL_Driver/Src/stm32h7xx_hal_crc.c ****   ******************************************************************************
   3:Drivers/STM32H7xx_HAL_Driver/Src/stm32h7xx_hal_crc.c ****   * @file    stm32h7xx_hal_crc.c
   4:Drivers/STM32H7xx_HAL_Driver/Src/stm32h7xx_hal_crc.c ****   * @author  MCD Application Team
   5:Drivers/STM32H7xx_HAL_Driver/Src/stm32h7xx_hal_crc.c ****   * @brief   CRC HAL module driver.
   6:Drivers/STM32H7xx_HAL_Driver/Src/stm32h7xx_hal_crc.c ****   *          This file provides firmware functions to manage the following
   7:Drivers/STM32H7xx_HAL_Driver/Src/stm32h7xx_hal_crc.c ****   *          functionalities of the Cyclic Redundancy Check (CRC) peripheral:
   8:Drivers/STM32H7xx_HAL_Driver/Src/stm32h7xx_hal_crc.c ****   *           + Initialization and de-initialization functions
   9:Drivers/STM32H7xx_HAL_Driver/Src/stm32h7xx_hal_crc.c ****   *           + Peripheral Control functions
  10:Drivers/STM32H7xx_HAL_Driver/Src/stm32h7xx_hal_crc.c ****   *           + Peripheral State functions
  11:Drivers/STM32H7xx_HAL_Driver/Src/stm32h7xx_hal_crc.c ****   *
  12:Drivers/STM32H7xx_HAL_Driver/Src/stm32h7xx_hal_crc.c ****   ******************************************************************************
  13:Drivers/STM32H7xx_HAL_Driver/Src/stm32h7xx_hal_crc.c ****   * @attention
  14:Drivers/STM32H7xx_HAL_Driver/Src/stm32h7xx_hal_crc.c ****   *
  15:Drivers/STM32H7xx_HAL_Driver/Src/stm32h7xx_hal_crc.c ****   * Copyright (c) 2017 STMicroelectronics.
  16:Drivers/STM32H7xx_HAL_Driver/Src/stm32h7xx_hal_crc.c ****   * All rights reserved.
  17:Drivers/STM32H7xx_HAL_Driver/Src/stm32h7xx_hal_crc.c ****   *
  18:Drivers/STM32H7xx_HAL_Driver/Src/stm32h7xx_hal_crc.c ****   * This software is licensed under terms that can be found in the LICENSE file
  19:Drivers/STM32H7xx_HAL_Driver/Src/stm32h7xx_hal_crc.c ****   * in the root directory of this software component.
  20:Drivers/STM32H7xx_HAL_Driver/Src/stm32h7xx_hal_crc.c ****   * If no LICENSE file comes with this software, it is provided AS-IS.
  21:Drivers/STM32H7xx_HAL_Driver/Src/stm32h7xx_hal_crc.c ****   *
  22:Drivers/STM32H7xx_HAL_Driver/Src/stm32h7xx_hal_crc.c ****   ******************************************************************************
  23:Drivers/STM32H7xx_HAL_Driver/Src/stm32h7xx_hal_crc.c ****   @verbatim
  24:Drivers/STM32H7xx_HAL_Driver/Src/stm32h7xx_hal_crc.c ****  ===============================================================================
  25:Drivers/STM32H7xx_HAL_Driver/Src/stm32h7xx_hal_crc.c ****                      ##### How to use this driver #####
  26:Drivers/STM32H7xx_HAL_Driver/Src/stm32h7xx_hal_crc.c ****  ===============================================================================
  27:Drivers/STM32H7xx_HAL_Driver/Src/stm32h7xx_hal_crc.c ****     [..]
  28:Drivers/STM32H7xx_HAL_Driver/Src/stm32h7xx_hal_crc.c ****          (+) Enable CRC AHB clock using __HAL_RCC_CRC_CLK_ENABLE();
  29:Drivers/STM32H7xx_HAL_Driver/Src/stm32h7xx_hal_crc.c ****          (+) Initialize CRC calculator
  30:Drivers/STM32H7xx_HAL_Driver/Src/stm32h7xx_hal_crc.c ****              (++) specify generating polynomial (peripheral default or non-default one)
  31:Drivers/STM32H7xx_HAL_Driver/Src/stm32h7xx_hal_crc.c ****              (++) specify initialization value (peripheral default or non-default one)
ARM GAS  /var/folders/2r/ldzc7vgx4p51wnq3gxc1dn840000gn/T//cc5wJlMF.s 			page 2


  32:Drivers/STM32H7xx_HAL_Driver/Src/stm32h7xx_hal_crc.c ****              (++) specify input data format
  33:Drivers/STM32H7xx_HAL_Driver/Src/stm32h7xx_hal_crc.c ****              (++) specify input or output data inversion mode if any
  34:Drivers/STM32H7xx_HAL_Driver/Src/stm32h7xx_hal_crc.c ****          (+) Use HAL_CRC_Accumulate() function to compute the CRC value of the
  35:Drivers/STM32H7xx_HAL_Driver/Src/stm32h7xx_hal_crc.c ****              input data buffer starting with the previously computed CRC as
  36:Drivers/STM32H7xx_HAL_Driver/Src/stm32h7xx_hal_crc.c ****              initialization value
  37:Drivers/STM32H7xx_HAL_Driver/Src/stm32h7xx_hal_crc.c ****          (+) Use HAL_CRC_Calculate() function to compute the CRC value of the
  38:Drivers/STM32H7xx_HAL_Driver/Src/stm32h7xx_hal_crc.c ****              input data buffer starting with the defined initialization value
  39:Drivers/STM32H7xx_HAL_Driver/Src/stm32h7xx_hal_crc.c ****              (default or non-default) to initiate CRC calculation
  40:Drivers/STM32H7xx_HAL_Driver/Src/stm32h7xx_hal_crc.c **** 
  41:Drivers/STM32H7xx_HAL_Driver/Src/stm32h7xx_hal_crc.c ****   @endverbatim
  42:Drivers/STM32H7xx_HAL_Driver/Src/stm32h7xx_hal_crc.c ****   ******************************************************************************
  43:Drivers/STM32H7xx_HAL_Driver/Src/stm32h7xx_hal_crc.c ****   */
  44:Drivers/STM32H7xx_HAL_Driver/Src/stm32h7xx_hal_crc.c **** 
  45:Drivers/STM32H7xx_HAL_Driver/Src/stm32h7xx_hal_crc.c **** /* Includes ------------------------------------------------------------------*/
  46:Drivers/STM32H7xx_HAL_Driver/Src/stm32h7xx_hal_crc.c **** #include "stm32h7xx_hal.h"
  47:Drivers/STM32H7xx_HAL_Driver/Src/stm32h7xx_hal_crc.c **** 
  48:Drivers/STM32H7xx_HAL_Driver/Src/stm32h7xx_hal_crc.c **** /** @addtogroup STM32H7xx_HAL_Driver
  49:Drivers/STM32H7xx_HAL_Driver/Src/stm32h7xx_hal_crc.c ****   * @{
  50:Drivers/STM32H7xx_HAL_Driver/Src/stm32h7xx_hal_crc.c ****   */
  51:Drivers/STM32H7xx_HAL_Driver/Src/stm32h7xx_hal_crc.c **** 
  52:Drivers/STM32H7xx_HAL_Driver/Src/stm32h7xx_hal_crc.c **** /** @defgroup CRC CRC
  53:Drivers/STM32H7xx_HAL_Driver/Src/stm32h7xx_hal_crc.c ****   * @brief CRC HAL module driver.
  54:Drivers/STM32H7xx_HAL_Driver/Src/stm32h7xx_hal_crc.c ****   * @{
  55:Drivers/STM32H7xx_HAL_Driver/Src/stm32h7xx_hal_crc.c ****   */
  56:Drivers/STM32H7xx_HAL_Driver/Src/stm32h7xx_hal_crc.c **** 
  57:Drivers/STM32H7xx_HAL_Driver/Src/stm32h7xx_hal_crc.c **** #ifdef HAL_CRC_MODULE_ENABLED
  58:Drivers/STM32H7xx_HAL_Driver/Src/stm32h7xx_hal_crc.c **** 
  59:Drivers/STM32H7xx_HAL_Driver/Src/stm32h7xx_hal_crc.c **** /* Private typedef -----------------------------------------------------------*/
  60:Drivers/STM32H7xx_HAL_Driver/Src/stm32h7xx_hal_crc.c **** /* Private define ------------------------------------------------------------*/
  61:Drivers/STM32H7xx_HAL_Driver/Src/stm32h7xx_hal_crc.c **** /* Private macro -------------------------------------------------------------*/
  62:Drivers/STM32H7xx_HAL_Driver/Src/stm32h7xx_hal_crc.c **** /* Private variables ---------------------------------------------------------*/
  63:Drivers/STM32H7xx_HAL_Driver/Src/stm32h7xx_hal_crc.c **** /* Private function prototypes -----------------------------------------------*/
  64:Drivers/STM32H7xx_HAL_Driver/Src/stm32h7xx_hal_crc.c **** /** @defgroup CRC_Private_Functions CRC Private Functions
  65:Drivers/STM32H7xx_HAL_Driver/Src/stm32h7xx_hal_crc.c ****   * @{
  66:Drivers/STM32H7xx_HAL_Driver/Src/stm32h7xx_hal_crc.c ****   */
  67:Drivers/STM32H7xx_HAL_Driver/Src/stm32h7xx_hal_crc.c **** static uint32_t CRC_Handle_8(CRC_HandleTypeDef *hcrc, uint8_t pBuffer[], uint32_t BufferLength);
  68:Drivers/STM32H7xx_HAL_Driver/Src/stm32h7xx_hal_crc.c **** static uint32_t CRC_Handle_16(CRC_HandleTypeDef *hcrc, uint16_t pBuffer[], uint32_t BufferLength);
  69:Drivers/STM32H7xx_HAL_Driver/Src/stm32h7xx_hal_crc.c **** /**
  70:Drivers/STM32H7xx_HAL_Driver/Src/stm32h7xx_hal_crc.c ****   * @}
  71:Drivers/STM32H7xx_HAL_Driver/Src/stm32h7xx_hal_crc.c ****   */
  72:Drivers/STM32H7xx_HAL_Driver/Src/stm32h7xx_hal_crc.c **** 
  73:Drivers/STM32H7xx_HAL_Driver/Src/stm32h7xx_hal_crc.c **** /* Exported functions --------------------------------------------------------*/
  74:Drivers/STM32H7xx_HAL_Driver/Src/stm32h7xx_hal_crc.c **** 
  75:Drivers/STM32H7xx_HAL_Driver/Src/stm32h7xx_hal_crc.c **** /** @defgroup CRC_Exported_Functions CRC Exported Functions
  76:Drivers/STM32H7xx_HAL_Driver/Src/stm32h7xx_hal_crc.c ****   * @{
  77:Drivers/STM32H7xx_HAL_Driver/Src/stm32h7xx_hal_crc.c ****   */
  78:Drivers/STM32H7xx_HAL_Driver/Src/stm32h7xx_hal_crc.c **** 
  79:Drivers/STM32H7xx_HAL_Driver/Src/stm32h7xx_hal_crc.c **** /** @defgroup CRC_Exported_Functions_Group1 Initialization and de-initialization functions
  80:Drivers/STM32H7xx_HAL_Driver/Src/stm32h7xx_hal_crc.c ****   *  @brief    Initialization and Configuration functions.
  81:Drivers/STM32H7xx_HAL_Driver/Src/stm32h7xx_hal_crc.c ****   *
  82:Drivers/STM32H7xx_HAL_Driver/Src/stm32h7xx_hal_crc.c **** @verbatim
  83:Drivers/STM32H7xx_HAL_Driver/Src/stm32h7xx_hal_crc.c ****  ===============================================================================
  84:Drivers/STM32H7xx_HAL_Driver/Src/stm32h7xx_hal_crc.c ****             ##### Initialization and de-initialization functions #####
  85:Drivers/STM32H7xx_HAL_Driver/Src/stm32h7xx_hal_crc.c ****  ===============================================================================
  86:Drivers/STM32H7xx_HAL_Driver/Src/stm32h7xx_hal_crc.c ****     [..]  This section provides functions allowing to:
  87:Drivers/STM32H7xx_HAL_Driver/Src/stm32h7xx_hal_crc.c ****       (+) Initialize the CRC according to the specified parameters
  88:Drivers/STM32H7xx_HAL_Driver/Src/stm32h7xx_hal_crc.c ****           in the CRC_InitTypeDef and create the associated handle
ARM GAS  /var/folders/2r/ldzc7vgx4p51wnq3gxc1dn840000gn/T//cc5wJlMF.s 			page 3


  89:Drivers/STM32H7xx_HAL_Driver/Src/stm32h7xx_hal_crc.c ****       (+) DeInitialize the CRC peripheral
  90:Drivers/STM32H7xx_HAL_Driver/Src/stm32h7xx_hal_crc.c ****       (+) Initialize the CRC MSP (MCU Specific Package)
  91:Drivers/STM32H7xx_HAL_Driver/Src/stm32h7xx_hal_crc.c ****       (+) DeInitialize the CRC MSP
  92:Drivers/STM32H7xx_HAL_Driver/Src/stm32h7xx_hal_crc.c **** 
  93:Drivers/STM32H7xx_HAL_Driver/Src/stm32h7xx_hal_crc.c **** @endverbatim
  94:Drivers/STM32H7xx_HAL_Driver/Src/stm32h7xx_hal_crc.c ****   * @{
  95:Drivers/STM32H7xx_HAL_Driver/Src/stm32h7xx_hal_crc.c ****   */
  96:Drivers/STM32H7xx_HAL_Driver/Src/stm32h7xx_hal_crc.c **** 
  97:Drivers/STM32H7xx_HAL_Driver/Src/stm32h7xx_hal_crc.c **** /**
  98:Drivers/STM32H7xx_HAL_Driver/Src/stm32h7xx_hal_crc.c ****   * @brief  Initialize the CRC according to the specified
  99:Drivers/STM32H7xx_HAL_Driver/Src/stm32h7xx_hal_crc.c ****   *         parameters in the CRC_InitTypeDef and create the associated handle.
 100:Drivers/STM32H7xx_HAL_Driver/Src/stm32h7xx_hal_crc.c ****   * @param  hcrc CRC handle
 101:Drivers/STM32H7xx_HAL_Driver/Src/stm32h7xx_hal_crc.c ****   * @retval HAL status
 102:Drivers/STM32H7xx_HAL_Driver/Src/stm32h7xx_hal_crc.c ****   */
 103:Drivers/STM32H7xx_HAL_Driver/Src/stm32h7xx_hal_crc.c **** HAL_StatusTypeDef HAL_CRC_Init(CRC_HandleTypeDef *hcrc)
 104:Drivers/STM32H7xx_HAL_Driver/Src/stm32h7xx_hal_crc.c **** {
 105:Drivers/STM32H7xx_HAL_Driver/Src/stm32h7xx_hal_crc.c ****   /* Check the CRC handle allocation */
 106:Drivers/STM32H7xx_HAL_Driver/Src/stm32h7xx_hal_crc.c ****   if (hcrc == NULL)
 107:Drivers/STM32H7xx_HAL_Driver/Src/stm32h7xx_hal_crc.c ****   {
 108:Drivers/STM32H7xx_HAL_Driver/Src/stm32h7xx_hal_crc.c ****     return HAL_ERROR;
 109:Drivers/STM32H7xx_HAL_Driver/Src/stm32h7xx_hal_crc.c ****   }
 110:Drivers/STM32H7xx_HAL_Driver/Src/stm32h7xx_hal_crc.c **** 
 111:Drivers/STM32H7xx_HAL_Driver/Src/stm32h7xx_hal_crc.c ****   /* Check the parameters */
 112:Drivers/STM32H7xx_HAL_Driver/Src/stm32h7xx_hal_crc.c ****   assert_param(IS_CRC_ALL_INSTANCE(hcrc->Instance));
 113:Drivers/STM32H7xx_HAL_Driver/Src/stm32h7xx_hal_crc.c **** 
 114:Drivers/STM32H7xx_HAL_Driver/Src/stm32h7xx_hal_crc.c ****   if (hcrc->State == HAL_CRC_STATE_RESET)
 115:Drivers/STM32H7xx_HAL_Driver/Src/stm32h7xx_hal_crc.c ****   {
 116:Drivers/STM32H7xx_HAL_Driver/Src/stm32h7xx_hal_crc.c ****     /* Allocate lock resource and initialize it */
 117:Drivers/STM32H7xx_HAL_Driver/Src/stm32h7xx_hal_crc.c ****     hcrc->Lock = HAL_UNLOCKED;
 118:Drivers/STM32H7xx_HAL_Driver/Src/stm32h7xx_hal_crc.c ****     /* Init the low level hardware */
 119:Drivers/STM32H7xx_HAL_Driver/Src/stm32h7xx_hal_crc.c ****     HAL_CRC_MspInit(hcrc);
 120:Drivers/STM32H7xx_HAL_Driver/Src/stm32h7xx_hal_crc.c ****   }
 121:Drivers/STM32H7xx_HAL_Driver/Src/stm32h7xx_hal_crc.c **** 
 122:Drivers/STM32H7xx_HAL_Driver/Src/stm32h7xx_hal_crc.c ****   hcrc->State = HAL_CRC_STATE_BUSY;
 123:Drivers/STM32H7xx_HAL_Driver/Src/stm32h7xx_hal_crc.c **** 
 124:Drivers/STM32H7xx_HAL_Driver/Src/stm32h7xx_hal_crc.c ****   /* check whether or not non-default generating polynomial has been
 125:Drivers/STM32H7xx_HAL_Driver/Src/stm32h7xx_hal_crc.c ****    * picked up by user */
 126:Drivers/STM32H7xx_HAL_Driver/Src/stm32h7xx_hal_crc.c ****   assert_param(IS_DEFAULT_POLYNOMIAL(hcrc->Init.DefaultPolynomialUse));
 127:Drivers/STM32H7xx_HAL_Driver/Src/stm32h7xx_hal_crc.c ****   if (hcrc->Init.DefaultPolynomialUse == DEFAULT_POLYNOMIAL_ENABLE)
 128:Drivers/STM32H7xx_HAL_Driver/Src/stm32h7xx_hal_crc.c ****   {
 129:Drivers/STM32H7xx_HAL_Driver/Src/stm32h7xx_hal_crc.c ****     /* initialize peripheral with default generating polynomial */
 130:Drivers/STM32H7xx_HAL_Driver/Src/stm32h7xx_hal_crc.c ****     WRITE_REG(hcrc->Instance->POL, DEFAULT_CRC32_POLY);
 131:Drivers/STM32H7xx_HAL_Driver/Src/stm32h7xx_hal_crc.c ****     MODIFY_REG(hcrc->Instance->CR, CRC_CR_POLYSIZE, CRC_POLYLENGTH_32B);
 132:Drivers/STM32H7xx_HAL_Driver/Src/stm32h7xx_hal_crc.c ****   }
 133:Drivers/STM32H7xx_HAL_Driver/Src/stm32h7xx_hal_crc.c ****   else
 134:Drivers/STM32H7xx_HAL_Driver/Src/stm32h7xx_hal_crc.c ****   {
 135:Drivers/STM32H7xx_HAL_Driver/Src/stm32h7xx_hal_crc.c ****     /* initialize CRC peripheral with generating polynomial defined by user */
 136:Drivers/STM32H7xx_HAL_Driver/Src/stm32h7xx_hal_crc.c ****     if (HAL_CRCEx_Polynomial_Set(hcrc, hcrc->Init.GeneratingPolynomial, hcrc->Init.CRCLength) != HA
 137:Drivers/STM32H7xx_HAL_Driver/Src/stm32h7xx_hal_crc.c ****     {
 138:Drivers/STM32H7xx_HAL_Driver/Src/stm32h7xx_hal_crc.c ****       return HAL_ERROR;
 139:Drivers/STM32H7xx_HAL_Driver/Src/stm32h7xx_hal_crc.c ****     }
 140:Drivers/STM32H7xx_HAL_Driver/Src/stm32h7xx_hal_crc.c ****   }
 141:Drivers/STM32H7xx_HAL_Driver/Src/stm32h7xx_hal_crc.c **** 
 142:Drivers/STM32H7xx_HAL_Driver/Src/stm32h7xx_hal_crc.c ****   /* check whether or not non-default CRC initial value has been
 143:Drivers/STM32H7xx_HAL_Driver/Src/stm32h7xx_hal_crc.c ****    * picked up by user */
 144:Drivers/STM32H7xx_HAL_Driver/Src/stm32h7xx_hal_crc.c ****   assert_param(IS_DEFAULT_INIT_VALUE(hcrc->Init.DefaultInitValueUse));
 145:Drivers/STM32H7xx_HAL_Driver/Src/stm32h7xx_hal_crc.c ****   if (hcrc->Init.DefaultInitValueUse == DEFAULT_INIT_VALUE_ENABLE)
ARM GAS  /var/folders/2r/ldzc7vgx4p51wnq3gxc1dn840000gn/T//cc5wJlMF.s 			page 4


 146:Drivers/STM32H7xx_HAL_Driver/Src/stm32h7xx_hal_crc.c ****   {
 147:Drivers/STM32H7xx_HAL_Driver/Src/stm32h7xx_hal_crc.c ****     WRITE_REG(hcrc->Instance->INIT, DEFAULT_CRC_INITVALUE);
 148:Drivers/STM32H7xx_HAL_Driver/Src/stm32h7xx_hal_crc.c ****   }
 149:Drivers/STM32H7xx_HAL_Driver/Src/stm32h7xx_hal_crc.c ****   else
 150:Drivers/STM32H7xx_HAL_Driver/Src/stm32h7xx_hal_crc.c ****   {
 151:Drivers/STM32H7xx_HAL_Driver/Src/stm32h7xx_hal_crc.c ****     WRITE_REG(hcrc->Instance->INIT, hcrc->Init.InitValue);
 152:Drivers/STM32H7xx_HAL_Driver/Src/stm32h7xx_hal_crc.c ****   }
 153:Drivers/STM32H7xx_HAL_Driver/Src/stm32h7xx_hal_crc.c **** 
 154:Drivers/STM32H7xx_HAL_Driver/Src/stm32h7xx_hal_crc.c **** 
 155:Drivers/STM32H7xx_HAL_Driver/Src/stm32h7xx_hal_crc.c ****   /* set input data inversion mode */
 156:Drivers/STM32H7xx_HAL_Driver/Src/stm32h7xx_hal_crc.c ****   assert_param(IS_CRC_INPUTDATA_INVERSION_MODE(hcrc->Init.InputDataInversionMode));
 157:Drivers/STM32H7xx_HAL_Driver/Src/stm32h7xx_hal_crc.c ****   MODIFY_REG(hcrc->Instance->CR, CRC_CR_REV_IN, hcrc->Init.InputDataInversionMode);
 158:Drivers/STM32H7xx_HAL_Driver/Src/stm32h7xx_hal_crc.c **** 
 159:Drivers/STM32H7xx_HAL_Driver/Src/stm32h7xx_hal_crc.c ****   /* set output data inversion mode */
 160:Drivers/STM32H7xx_HAL_Driver/Src/stm32h7xx_hal_crc.c ****   assert_param(IS_CRC_OUTPUTDATA_INVERSION_MODE(hcrc->Init.OutputDataInversionMode));
 161:Drivers/STM32H7xx_HAL_Driver/Src/stm32h7xx_hal_crc.c ****   MODIFY_REG(hcrc->Instance->CR, CRC_CR_REV_OUT, hcrc->Init.OutputDataInversionMode);
 162:Drivers/STM32H7xx_HAL_Driver/Src/stm32h7xx_hal_crc.c **** 
 163:Drivers/STM32H7xx_HAL_Driver/Src/stm32h7xx_hal_crc.c ****   /* makes sure the input data format (bytes, halfwords or words stream)
 164:Drivers/STM32H7xx_HAL_Driver/Src/stm32h7xx_hal_crc.c ****    * is properly specified by user */
 165:Drivers/STM32H7xx_HAL_Driver/Src/stm32h7xx_hal_crc.c ****   assert_param(IS_CRC_INPUTDATA_FORMAT(hcrc->InputDataFormat));
 166:Drivers/STM32H7xx_HAL_Driver/Src/stm32h7xx_hal_crc.c **** 
 167:Drivers/STM32H7xx_HAL_Driver/Src/stm32h7xx_hal_crc.c ****   /* Change CRC peripheral state */
 168:Drivers/STM32H7xx_HAL_Driver/Src/stm32h7xx_hal_crc.c ****   hcrc->State = HAL_CRC_STATE_READY;
 169:Drivers/STM32H7xx_HAL_Driver/Src/stm32h7xx_hal_crc.c **** 
 170:Drivers/STM32H7xx_HAL_Driver/Src/stm32h7xx_hal_crc.c ****   /* Return function status */
 171:Drivers/STM32H7xx_HAL_Driver/Src/stm32h7xx_hal_crc.c ****   return HAL_OK;
 172:Drivers/STM32H7xx_HAL_Driver/Src/stm32h7xx_hal_crc.c **** }
 173:Drivers/STM32H7xx_HAL_Driver/Src/stm32h7xx_hal_crc.c **** 
 174:Drivers/STM32H7xx_HAL_Driver/Src/stm32h7xx_hal_crc.c **** /**
 175:Drivers/STM32H7xx_HAL_Driver/Src/stm32h7xx_hal_crc.c ****   * @brief  DeInitialize the CRC peripheral.
 176:Drivers/STM32H7xx_HAL_Driver/Src/stm32h7xx_hal_crc.c ****   * @param  hcrc CRC handle
 177:Drivers/STM32H7xx_HAL_Driver/Src/stm32h7xx_hal_crc.c ****   * @retval HAL status
 178:Drivers/STM32H7xx_HAL_Driver/Src/stm32h7xx_hal_crc.c ****   */
 179:Drivers/STM32H7xx_HAL_Driver/Src/stm32h7xx_hal_crc.c **** HAL_StatusTypeDef HAL_CRC_DeInit(CRC_HandleTypeDef *hcrc)
 180:Drivers/STM32H7xx_HAL_Driver/Src/stm32h7xx_hal_crc.c **** {
 181:Drivers/STM32H7xx_HAL_Driver/Src/stm32h7xx_hal_crc.c ****   /* Check the CRC handle allocation */
 182:Drivers/STM32H7xx_HAL_Driver/Src/stm32h7xx_hal_crc.c ****   if (hcrc == NULL)
 183:Drivers/STM32H7xx_HAL_Driver/Src/stm32h7xx_hal_crc.c ****   {
 184:Drivers/STM32H7xx_HAL_Driver/Src/stm32h7xx_hal_crc.c ****     return HAL_ERROR;
 185:Drivers/STM32H7xx_HAL_Driver/Src/stm32h7xx_hal_crc.c ****   }
 186:Drivers/STM32H7xx_HAL_Driver/Src/stm32h7xx_hal_crc.c **** 
 187:Drivers/STM32H7xx_HAL_Driver/Src/stm32h7xx_hal_crc.c ****   /* Check the parameters */
 188:Drivers/STM32H7xx_HAL_Driver/Src/stm32h7xx_hal_crc.c ****   assert_param(IS_CRC_ALL_INSTANCE(hcrc->Instance));
 189:Drivers/STM32H7xx_HAL_Driver/Src/stm32h7xx_hal_crc.c **** 
 190:Drivers/STM32H7xx_HAL_Driver/Src/stm32h7xx_hal_crc.c ****   /* Check the CRC peripheral state */
 191:Drivers/STM32H7xx_HAL_Driver/Src/stm32h7xx_hal_crc.c ****   if (hcrc->State == HAL_CRC_STATE_BUSY)
 192:Drivers/STM32H7xx_HAL_Driver/Src/stm32h7xx_hal_crc.c ****   {
 193:Drivers/STM32H7xx_HAL_Driver/Src/stm32h7xx_hal_crc.c ****     return HAL_BUSY;
 194:Drivers/STM32H7xx_HAL_Driver/Src/stm32h7xx_hal_crc.c ****   }
 195:Drivers/STM32H7xx_HAL_Driver/Src/stm32h7xx_hal_crc.c **** 
 196:Drivers/STM32H7xx_HAL_Driver/Src/stm32h7xx_hal_crc.c ****   /* Change CRC peripheral state */
 197:Drivers/STM32H7xx_HAL_Driver/Src/stm32h7xx_hal_crc.c ****   hcrc->State = HAL_CRC_STATE_BUSY;
 198:Drivers/STM32H7xx_HAL_Driver/Src/stm32h7xx_hal_crc.c **** 
 199:Drivers/STM32H7xx_HAL_Driver/Src/stm32h7xx_hal_crc.c ****   /* Reset CRC calculation unit */
 200:Drivers/STM32H7xx_HAL_Driver/Src/stm32h7xx_hal_crc.c ****   __HAL_CRC_DR_RESET(hcrc);
 201:Drivers/STM32H7xx_HAL_Driver/Src/stm32h7xx_hal_crc.c **** 
 202:Drivers/STM32H7xx_HAL_Driver/Src/stm32h7xx_hal_crc.c ****   /* Reset IDR register content */
ARM GAS  /var/folders/2r/ldzc7vgx4p51wnq3gxc1dn840000gn/T//cc5wJlMF.s 			page 5


 203:Drivers/STM32H7xx_HAL_Driver/Src/stm32h7xx_hal_crc.c ****   CLEAR_REG(hcrc->Instance->IDR);
 204:Drivers/STM32H7xx_HAL_Driver/Src/stm32h7xx_hal_crc.c **** 
 205:Drivers/STM32H7xx_HAL_Driver/Src/stm32h7xx_hal_crc.c ****   /* DeInit the low level hardware */
 206:Drivers/STM32H7xx_HAL_Driver/Src/stm32h7xx_hal_crc.c ****   HAL_CRC_MspDeInit(hcrc);
 207:Drivers/STM32H7xx_HAL_Driver/Src/stm32h7xx_hal_crc.c **** 
 208:Drivers/STM32H7xx_HAL_Driver/Src/stm32h7xx_hal_crc.c ****   /* Change CRC peripheral state */
 209:Drivers/STM32H7xx_HAL_Driver/Src/stm32h7xx_hal_crc.c ****   hcrc->State = HAL_CRC_STATE_RESET;
 210:Drivers/STM32H7xx_HAL_Driver/Src/stm32h7xx_hal_crc.c **** 
 211:Drivers/STM32H7xx_HAL_Driver/Src/stm32h7xx_hal_crc.c ****   /* Process unlocked */
 212:Drivers/STM32H7xx_HAL_Driver/Src/stm32h7xx_hal_crc.c ****   __HAL_UNLOCK(hcrc);
 213:Drivers/STM32H7xx_HAL_Driver/Src/stm32h7xx_hal_crc.c **** 
 214:Drivers/STM32H7xx_HAL_Driver/Src/stm32h7xx_hal_crc.c ****   /* Return function status */
 215:Drivers/STM32H7xx_HAL_Driver/Src/stm32h7xx_hal_crc.c ****   return HAL_OK;
 216:Drivers/STM32H7xx_HAL_Driver/Src/stm32h7xx_hal_crc.c **** }
 217:Drivers/STM32H7xx_HAL_Driver/Src/stm32h7xx_hal_crc.c **** 
 218:Drivers/STM32H7xx_HAL_Driver/Src/stm32h7xx_hal_crc.c **** /**
 219:Drivers/STM32H7xx_HAL_Driver/Src/stm32h7xx_hal_crc.c ****   * @brief  Initializes the CRC MSP.
 220:Drivers/STM32H7xx_HAL_Driver/Src/stm32h7xx_hal_crc.c ****   * @param  hcrc CRC handle
 221:Drivers/STM32H7xx_HAL_Driver/Src/stm32h7xx_hal_crc.c ****   * @retval None
 222:Drivers/STM32H7xx_HAL_Driver/Src/stm32h7xx_hal_crc.c ****   */
 223:Drivers/STM32H7xx_HAL_Driver/Src/stm32h7xx_hal_crc.c **** __weak void HAL_CRC_MspInit(CRC_HandleTypeDef *hcrc)
 224:Drivers/STM32H7xx_HAL_Driver/Src/stm32h7xx_hal_crc.c **** {
 225:Drivers/STM32H7xx_HAL_Driver/Src/stm32h7xx_hal_crc.c ****   /* Prevent unused argument(s) compilation warning */
 226:Drivers/STM32H7xx_HAL_Driver/Src/stm32h7xx_hal_crc.c ****   UNUSED(hcrc);
 227:Drivers/STM32H7xx_HAL_Driver/Src/stm32h7xx_hal_crc.c **** 
 228:Drivers/STM32H7xx_HAL_Driver/Src/stm32h7xx_hal_crc.c ****   /* NOTE : This function should not be modified, when the callback is needed,
 229:Drivers/STM32H7xx_HAL_Driver/Src/stm32h7xx_hal_crc.c ****             the HAL_CRC_MspInit can be implemented in the user file
 230:Drivers/STM32H7xx_HAL_Driver/Src/stm32h7xx_hal_crc.c ****    */
 231:Drivers/STM32H7xx_HAL_Driver/Src/stm32h7xx_hal_crc.c **** }
 232:Drivers/STM32H7xx_HAL_Driver/Src/stm32h7xx_hal_crc.c **** 
 233:Drivers/STM32H7xx_HAL_Driver/Src/stm32h7xx_hal_crc.c **** /**
 234:Drivers/STM32H7xx_HAL_Driver/Src/stm32h7xx_hal_crc.c ****   * @brief  DeInitialize the CRC MSP.
 235:Drivers/STM32H7xx_HAL_Driver/Src/stm32h7xx_hal_crc.c ****   * @param  hcrc CRC handle
 236:Drivers/STM32H7xx_HAL_Driver/Src/stm32h7xx_hal_crc.c ****   * @retval None
 237:Drivers/STM32H7xx_HAL_Driver/Src/stm32h7xx_hal_crc.c ****   */
 238:Drivers/STM32H7xx_HAL_Driver/Src/stm32h7xx_hal_crc.c **** __weak void HAL_CRC_MspDeInit(CRC_HandleTypeDef *hcrc)
 239:Drivers/STM32H7xx_HAL_Driver/Src/stm32h7xx_hal_crc.c **** {
 240:Drivers/STM32H7xx_HAL_Driver/Src/stm32h7xx_hal_crc.c ****   /* Prevent unused argument(s) compilation warning */
 241:Drivers/STM32H7xx_HAL_Driver/Src/stm32h7xx_hal_crc.c ****   UNUSED(hcrc);
 242:Drivers/STM32H7xx_HAL_Driver/Src/stm32h7xx_hal_crc.c **** 
 243:Drivers/STM32H7xx_HAL_Driver/Src/stm32h7xx_hal_crc.c ****   /* NOTE : This function should not be modified, when the callback is needed,
 244:Drivers/STM32H7xx_HAL_Driver/Src/stm32h7xx_hal_crc.c ****             the HAL_CRC_MspDeInit can be implemented in the user file
 245:Drivers/STM32H7xx_HAL_Driver/Src/stm32h7xx_hal_crc.c ****    */
 246:Drivers/STM32H7xx_HAL_Driver/Src/stm32h7xx_hal_crc.c **** }
 247:Drivers/STM32H7xx_HAL_Driver/Src/stm32h7xx_hal_crc.c **** 
 248:Drivers/STM32H7xx_HAL_Driver/Src/stm32h7xx_hal_crc.c **** /**
 249:Drivers/STM32H7xx_HAL_Driver/Src/stm32h7xx_hal_crc.c ****   * @}
 250:Drivers/STM32H7xx_HAL_Driver/Src/stm32h7xx_hal_crc.c ****   */
 251:Drivers/STM32H7xx_HAL_Driver/Src/stm32h7xx_hal_crc.c **** 
 252:Drivers/STM32H7xx_HAL_Driver/Src/stm32h7xx_hal_crc.c **** /** @defgroup CRC_Exported_Functions_Group2 Peripheral Control functions
 253:Drivers/STM32H7xx_HAL_Driver/Src/stm32h7xx_hal_crc.c ****   *  @brief    management functions.
 254:Drivers/STM32H7xx_HAL_Driver/Src/stm32h7xx_hal_crc.c ****   *
 255:Drivers/STM32H7xx_HAL_Driver/Src/stm32h7xx_hal_crc.c **** @verbatim
 256:Drivers/STM32H7xx_HAL_Driver/Src/stm32h7xx_hal_crc.c ****  ===============================================================================
 257:Drivers/STM32H7xx_HAL_Driver/Src/stm32h7xx_hal_crc.c ****                       ##### Peripheral Control functions #####
 258:Drivers/STM32H7xx_HAL_Driver/Src/stm32h7xx_hal_crc.c ****  ===============================================================================
 259:Drivers/STM32H7xx_HAL_Driver/Src/stm32h7xx_hal_crc.c ****     [..]  This section provides functions allowing to:
ARM GAS  /var/folders/2r/ldzc7vgx4p51wnq3gxc1dn840000gn/T//cc5wJlMF.s 			page 6


 260:Drivers/STM32H7xx_HAL_Driver/Src/stm32h7xx_hal_crc.c ****       (+) compute the 7, 8, 16 or 32-bit CRC value of an 8, 16 or 32-bit data buffer
 261:Drivers/STM32H7xx_HAL_Driver/Src/stm32h7xx_hal_crc.c ****           using combination of the previous CRC value and the new one.
 262:Drivers/STM32H7xx_HAL_Driver/Src/stm32h7xx_hal_crc.c **** 
 263:Drivers/STM32H7xx_HAL_Driver/Src/stm32h7xx_hal_crc.c ****        [..]  or
 264:Drivers/STM32H7xx_HAL_Driver/Src/stm32h7xx_hal_crc.c **** 
 265:Drivers/STM32H7xx_HAL_Driver/Src/stm32h7xx_hal_crc.c ****       (+) compute the 7, 8, 16 or 32-bit CRC value of an 8, 16 or 32-bit data buffer
 266:Drivers/STM32H7xx_HAL_Driver/Src/stm32h7xx_hal_crc.c ****           independently of the previous CRC value.
 267:Drivers/STM32H7xx_HAL_Driver/Src/stm32h7xx_hal_crc.c **** 
 268:Drivers/STM32H7xx_HAL_Driver/Src/stm32h7xx_hal_crc.c **** @endverbatim
 269:Drivers/STM32H7xx_HAL_Driver/Src/stm32h7xx_hal_crc.c ****   * @{
 270:Drivers/STM32H7xx_HAL_Driver/Src/stm32h7xx_hal_crc.c ****   */
 271:Drivers/STM32H7xx_HAL_Driver/Src/stm32h7xx_hal_crc.c **** 
 272:Drivers/STM32H7xx_HAL_Driver/Src/stm32h7xx_hal_crc.c **** /**
 273:Drivers/STM32H7xx_HAL_Driver/Src/stm32h7xx_hal_crc.c ****   * @brief  Compute the 7, 8, 16 or 32-bit CRC value of an 8, 16 or 32-bit data buffer
 274:Drivers/STM32H7xx_HAL_Driver/Src/stm32h7xx_hal_crc.c ****   *         starting with the previously computed CRC as initialization value.
 275:Drivers/STM32H7xx_HAL_Driver/Src/stm32h7xx_hal_crc.c ****   * @param  hcrc CRC handle
 276:Drivers/STM32H7xx_HAL_Driver/Src/stm32h7xx_hal_crc.c ****   * @param  pBuffer pointer to the input data buffer, exact input data format is
 277:Drivers/STM32H7xx_HAL_Driver/Src/stm32h7xx_hal_crc.c ****   *         provided by hcrc->InputDataFormat.
 278:Drivers/STM32H7xx_HAL_Driver/Src/stm32h7xx_hal_crc.c ****   * @param  BufferLength input data buffer length (number of bytes if pBuffer
 279:Drivers/STM32H7xx_HAL_Driver/Src/stm32h7xx_hal_crc.c ****   *         type is * uint8_t, number of half-words if pBuffer type is * uint16_t,
 280:Drivers/STM32H7xx_HAL_Driver/Src/stm32h7xx_hal_crc.c ****   *         number of words if pBuffer type is * uint32_t).
 281:Drivers/STM32H7xx_HAL_Driver/Src/stm32h7xx_hal_crc.c ****   * @note  By default, the API expects a uint32_t pointer as input buffer parameter.
 282:Drivers/STM32H7xx_HAL_Driver/Src/stm32h7xx_hal_crc.c ****   *        Input buffer pointers with other types simply need to be cast in uint32_t
 283:Drivers/STM32H7xx_HAL_Driver/Src/stm32h7xx_hal_crc.c ****   *        and the API will internally adjust its input data processing based on the
 284:Drivers/STM32H7xx_HAL_Driver/Src/stm32h7xx_hal_crc.c ****   *        handle field hcrc->InputDataFormat.
 285:Drivers/STM32H7xx_HAL_Driver/Src/stm32h7xx_hal_crc.c ****   * @retval uint32_t CRC (returned value LSBs for CRC shorter than 32 bits)
 286:Drivers/STM32H7xx_HAL_Driver/Src/stm32h7xx_hal_crc.c ****   */
 287:Drivers/STM32H7xx_HAL_Driver/Src/stm32h7xx_hal_crc.c **** uint32_t HAL_CRC_Accumulate(CRC_HandleTypeDef *hcrc, uint32_t pBuffer[], uint32_t BufferLength)
 288:Drivers/STM32H7xx_HAL_Driver/Src/stm32h7xx_hal_crc.c **** {
 289:Drivers/STM32H7xx_HAL_Driver/Src/stm32h7xx_hal_crc.c ****   uint32_t index;      /* CRC input data buffer index */
 290:Drivers/STM32H7xx_HAL_Driver/Src/stm32h7xx_hal_crc.c ****   uint32_t temp = 0U;  /* CRC output (read from hcrc->Instance->DR register) */
 291:Drivers/STM32H7xx_HAL_Driver/Src/stm32h7xx_hal_crc.c **** 
 292:Drivers/STM32H7xx_HAL_Driver/Src/stm32h7xx_hal_crc.c ****   /* Change CRC peripheral state */
 293:Drivers/STM32H7xx_HAL_Driver/Src/stm32h7xx_hal_crc.c ****   hcrc->State = HAL_CRC_STATE_BUSY;
 294:Drivers/STM32H7xx_HAL_Driver/Src/stm32h7xx_hal_crc.c **** 
 295:Drivers/STM32H7xx_HAL_Driver/Src/stm32h7xx_hal_crc.c ****   switch (hcrc->InputDataFormat)
 296:Drivers/STM32H7xx_HAL_Driver/Src/stm32h7xx_hal_crc.c ****   {
 297:Drivers/STM32H7xx_HAL_Driver/Src/stm32h7xx_hal_crc.c ****     case CRC_INPUTDATA_FORMAT_WORDS:
 298:Drivers/STM32H7xx_HAL_Driver/Src/stm32h7xx_hal_crc.c ****       /* Enter Data to the CRC calculator */
 299:Drivers/STM32H7xx_HAL_Driver/Src/stm32h7xx_hal_crc.c ****       for (index = 0U; index < BufferLength; index++)
 300:Drivers/STM32H7xx_HAL_Driver/Src/stm32h7xx_hal_crc.c ****       {
 301:Drivers/STM32H7xx_HAL_Driver/Src/stm32h7xx_hal_crc.c ****         hcrc->Instance->DR = pBuffer[index];
 302:Drivers/STM32H7xx_HAL_Driver/Src/stm32h7xx_hal_crc.c ****       }
 303:Drivers/STM32H7xx_HAL_Driver/Src/stm32h7xx_hal_crc.c ****       temp = hcrc->Instance->DR;
 304:Drivers/STM32H7xx_HAL_Driver/Src/stm32h7xx_hal_crc.c ****       break;
 305:Drivers/STM32H7xx_HAL_Driver/Src/stm32h7xx_hal_crc.c **** 
 306:Drivers/STM32H7xx_HAL_Driver/Src/stm32h7xx_hal_crc.c ****     case CRC_INPUTDATA_FORMAT_BYTES:
 307:Drivers/STM32H7xx_HAL_Driver/Src/stm32h7xx_hal_crc.c ****       temp = CRC_Handle_8(hcrc, (uint8_t *)pBuffer, BufferLength);
 308:Drivers/STM32H7xx_HAL_Driver/Src/stm32h7xx_hal_crc.c ****       break;
 309:Drivers/STM32H7xx_HAL_Driver/Src/stm32h7xx_hal_crc.c **** 
 310:Drivers/STM32H7xx_HAL_Driver/Src/stm32h7xx_hal_crc.c ****     case CRC_INPUTDATA_FORMAT_HALFWORDS:
 311:Drivers/STM32H7xx_HAL_Driver/Src/stm32h7xx_hal_crc.c ****       temp = CRC_Handle_16(hcrc, (uint16_t *)(void *)pBuffer, BufferLength);    /* Derogation Misra
 312:Drivers/STM32H7xx_HAL_Driver/Src/stm32h7xx_hal_crc.c ****       break;
 313:Drivers/STM32H7xx_HAL_Driver/Src/stm32h7xx_hal_crc.c ****     default:
 314:Drivers/STM32H7xx_HAL_Driver/Src/stm32h7xx_hal_crc.c ****       break;
 315:Drivers/STM32H7xx_HAL_Driver/Src/stm32h7xx_hal_crc.c ****   }
 316:Drivers/STM32H7xx_HAL_Driver/Src/stm32h7xx_hal_crc.c **** 
ARM GAS  /var/folders/2r/ldzc7vgx4p51wnq3gxc1dn840000gn/T//cc5wJlMF.s 			page 7


 317:Drivers/STM32H7xx_HAL_Driver/Src/stm32h7xx_hal_crc.c ****   /* Change CRC peripheral state */
 318:Drivers/STM32H7xx_HAL_Driver/Src/stm32h7xx_hal_crc.c ****   hcrc->State = HAL_CRC_STATE_READY;
 319:Drivers/STM32H7xx_HAL_Driver/Src/stm32h7xx_hal_crc.c **** 
 320:Drivers/STM32H7xx_HAL_Driver/Src/stm32h7xx_hal_crc.c ****   /* Return the CRC computed value */
 321:Drivers/STM32H7xx_HAL_Driver/Src/stm32h7xx_hal_crc.c ****   return temp;
 322:Drivers/STM32H7xx_HAL_Driver/Src/stm32h7xx_hal_crc.c **** }
 323:Drivers/STM32H7xx_HAL_Driver/Src/stm32h7xx_hal_crc.c **** 
 324:Drivers/STM32H7xx_HAL_Driver/Src/stm32h7xx_hal_crc.c **** /**
 325:Drivers/STM32H7xx_HAL_Driver/Src/stm32h7xx_hal_crc.c ****   * @brief  Compute the 7, 8, 16 or 32-bit CRC value of an 8, 16 or 32-bit data buffer
 326:Drivers/STM32H7xx_HAL_Driver/Src/stm32h7xx_hal_crc.c ****   *         starting with hcrc->Instance->INIT as initialization value.
 327:Drivers/STM32H7xx_HAL_Driver/Src/stm32h7xx_hal_crc.c ****   * @param  hcrc CRC handle
 328:Drivers/STM32H7xx_HAL_Driver/Src/stm32h7xx_hal_crc.c ****   * @param  pBuffer pointer to the input data buffer, exact input data format is
 329:Drivers/STM32H7xx_HAL_Driver/Src/stm32h7xx_hal_crc.c ****   *         provided by hcrc->InputDataFormat.
 330:Drivers/STM32H7xx_HAL_Driver/Src/stm32h7xx_hal_crc.c ****   * @param  BufferLength input data buffer length (number of bytes if pBuffer
 331:Drivers/STM32H7xx_HAL_Driver/Src/stm32h7xx_hal_crc.c ****   *         type is * uint8_t, number of half-words if pBuffer type is * uint16_t,
 332:Drivers/STM32H7xx_HAL_Driver/Src/stm32h7xx_hal_crc.c ****   *         number of words if pBuffer type is * uint32_t).
 333:Drivers/STM32H7xx_HAL_Driver/Src/stm32h7xx_hal_crc.c ****   * @note  By default, the API expects a uint32_t pointer as input buffer parameter.
 334:Drivers/STM32H7xx_HAL_Driver/Src/stm32h7xx_hal_crc.c ****   *        Input buffer pointers with other types simply need to be cast in uint32_t
 335:Drivers/STM32H7xx_HAL_Driver/Src/stm32h7xx_hal_crc.c ****   *        and the API will internally adjust its input data processing based on the
 336:Drivers/STM32H7xx_HAL_Driver/Src/stm32h7xx_hal_crc.c ****   *        handle field hcrc->InputDataFormat.
 337:Drivers/STM32H7xx_HAL_Driver/Src/stm32h7xx_hal_crc.c ****   * @retval uint32_t CRC (returned value LSBs for CRC shorter than 32 bits)
 338:Drivers/STM32H7xx_HAL_Driver/Src/stm32h7xx_hal_crc.c ****   */
 339:Drivers/STM32H7xx_HAL_Driver/Src/stm32h7xx_hal_crc.c **** uint32_t HAL_CRC_Calculate(CRC_HandleTypeDef *hcrc, uint32_t pBuffer[], uint32_t BufferLength)
 340:Drivers/STM32H7xx_HAL_Driver/Src/stm32h7xx_hal_crc.c **** {
 341:Drivers/STM32H7xx_HAL_Driver/Src/stm32h7xx_hal_crc.c ****   uint32_t index;      /* CRC input data buffer index */
 342:Drivers/STM32H7xx_HAL_Driver/Src/stm32h7xx_hal_crc.c ****   uint32_t temp = 0U;  /* CRC output (read from hcrc->Instance->DR register) */
 343:Drivers/STM32H7xx_HAL_Driver/Src/stm32h7xx_hal_crc.c **** 
 344:Drivers/STM32H7xx_HAL_Driver/Src/stm32h7xx_hal_crc.c ****   /* Change CRC peripheral state */
 345:Drivers/STM32H7xx_HAL_Driver/Src/stm32h7xx_hal_crc.c ****   hcrc->State = HAL_CRC_STATE_BUSY;
 346:Drivers/STM32H7xx_HAL_Driver/Src/stm32h7xx_hal_crc.c **** 
 347:Drivers/STM32H7xx_HAL_Driver/Src/stm32h7xx_hal_crc.c ****   /* Reset CRC Calculation Unit (hcrc->Instance->INIT is
 348:Drivers/STM32H7xx_HAL_Driver/Src/stm32h7xx_hal_crc.c ****   *  written in hcrc->Instance->DR) */
 349:Drivers/STM32H7xx_HAL_Driver/Src/stm32h7xx_hal_crc.c ****   __HAL_CRC_DR_RESET(hcrc);
 350:Drivers/STM32H7xx_HAL_Driver/Src/stm32h7xx_hal_crc.c **** 
 351:Drivers/STM32H7xx_HAL_Driver/Src/stm32h7xx_hal_crc.c ****   switch (hcrc->InputDataFormat)
 352:Drivers/STM32H7xx_HAL_Driver/Src/stm32h7xx_hal_crc.c ****   {
 353:Drivers/STM32H7xx_HAL_Driver/Src/stm32h7xx_hal_crc.c ****     case CRC_INPUTDATA_FORMAT_WORDS:
 354:Drivers/STM32H7xx_HAL_Driver/Src/stm32h7xx_hal_crc.c ****       /* Enter 32-bit input data to the CRC calculator */
 355:Drivers/STM32H7xx_HAL_Driver/Src/stm32h7xx_hal_crc.c ****       for (index = 0U; index < BufferLength; index++)
 356:Drivers/STM32H7xx_HAL_Driver/Src/stm32h7xx_hal_crc.c ****       {
 357:Drivers/STM32H7xx_HAL_Driver/Src/stm32h7xx_hal_crc.c ****         hcrc->Instance->DR = pBuffer[index];
 358:Drivers/STM32H7xx_HAL_Driver/Src/stm32h7xx_hal_crc.c ****       }
 359:Drivers/STM32H7xx_HAL_Driver/Src/stm32h7xx_hal_crc.c ****       temp = hcrc->Instance->DR;
 360:Drivers/STM32H7xx_HAL_Driver/Src/stm32h7xx_hal_crc.c ****       break;
 361:Drivers/STM32H7xx_HAL_Driver/Src/stm32h7xx_hal_crc.c **** 
 362:Drivers/STM32H7xx_HAL_Driver/Src/stm32h7xx_hal_crc.c ****     case CRC_INPUTDATA_FORMAT_BYTES:
 363:Drivers/STM32H7xx_HAL_Driver/Src/stm32h7xx_hal_crc.c ****       /* Specific 8-bit input data handling  */
 364:Drivers/STM32H7xx_HAL_Driver/Src/stm32h7xx_hal_crc.c ****       temp = CRC_Handle_8(hcrc, (uint8_t *)pBuffer, BufferLength);
 365:Drivers/STM32H7xx_HAL_Driver/Src/stm32h7xx_hal_crc.c ****       break;
 366:Drivers/STM32H7xx_HAL_Driver/Src/stm32h7xx_hal_crc.c **** 
 367:Drivers/STM32H7xx_HAL_Driver/Src/stm32h7xx_hal_crc.c ****     case CRC_INPUTDATA_FORMAT_HALFWORDS:
 368:Drivers/STM32H7xx_HAL_Driver/Src/stm32h7xx_hal_crc.c ****       /* Specific 16-bit input data handling  */
 369:Drivers/STM32H7xx_HAL_Driver/Src/stm32h7xx_hal_crc.c ****       temp = CRC_Handle_16(hcrc, (uint16_t *)(void *)pBuffer, BufferLength);    /* Derogation Misra
 370:Drivers/STM32H7xx_HAL_Driver/Src/stm32h7xx_hal_crc.c ****       break;
 371:Drivers/STM32H7xx_HAL_Driver/Src/stm32h7xx_hal_crc.c **** 
 372:Drivers/STM32H7xx_HAL_Driver/Src/stm32h7xx_hal_crc.c ****     default:
 373:Drivers/STM32H7xx_HAL_Driver/Src/stm32h7xx_hal_crc.c ****       break;
ARM GAS  /var/folders/2r/ldzc7vgx4p51wnq3gxc1dn840000gn/T//cc5wJlMF.s 			page 8


 374:Drivers/STM32H7xx_HAL_Driver/Src/stm32h7xx_hal_crc.c ****   }
 375:Drivers/STM32H7xx_HAL_Driver/Src/stm32h7xx_hal_crc.c **** 
 376:Drivers/STM32H7xx_HAL_Driver/Src/stm32h7xx_hal_crc.c ****   /* Change CRC peripheral state */
 377:Drivers/STM32H7xx_HAL_Driver/Src/stm32h7xx_hal_crc.c ****   hcrc->State = HAL_CRC_STATE_READY;
 378:Drivers/STM32H7xx_HAL_Driver/Src/stm32h7xx_hal_crc.c **** 
 379:Drivers/STM32H7xx_HAL_Driver/Src/stm32h7xx_hal_crc.c ****   /* Return the CRC computed value */
 380:Drivers/STM32H7xx_HAL_Driver/Src/stm32h7xx_hal_crc.c ****   return temp;
 381:Drivers/STM32H7xx_HAL_Driver/Src/stm32h7xx_hal_crc.c **** }
 382:Drivers/STM32H7xx_HAL_Driver/Src/stm32h7xx_hal_crc.c **** 
 383:Drivers/STM32H7xx_HAL_Driver/Src/stm32h7xx_hal_crc.c **** /**
 384:Drivers/STM32H7xx_HAL_Driver/Src/stm32h7xx_hal_crc.c ****   * @}
 385:Drivers/STM32H7xx_HAL_Driver/Src/stm32h7xx_hal_crc.c ****   */
 386:Drivers/STM32H7xx_HAL_Driver/Src/stm32h7xx_hal_crc.c **** 
 387:Drivers/STM32H7xx_HAL_Driver/Src/stm32h7xx_hal_crc.c **** /** @defgroup CRC_Exported_Functions_Group3 Peripheral State functions
 388:Drivers/STM32H7xx_HAL_Driver/Src/stm32h7xx_hal_crc.c ****   *  @brief    Peripheral State functions.
 389:Drivers/STM32H7xx_HAL_Driver/Src/stm32h7xx_hal_crc.c ****   *
 390:Drivers/STM32H7xx_HAL_Driver/Src/stm32h7xx_hal_crc.c **** @verbatim
 391:Drivers/STM32H7xx_HAL_Driver/Src/stm32h7xx_hal_crc.c ****  ===============================================================================
 392:Drivers/STM32H7xx_HAL_Driver/Src/stm32h7xx_hal_crc.c ****                       ##### Peripheral State functions #####
 393:Drivers/STM32H7xx_HAL_Driver/Src/stm32h7xx_hal_crc.c ****  ===============================================================================
 394:Drivers/STM32H7xx_HAL_Driver/Src/stm32h7xx_hal_crc.c ****     [..]
 395:Drivers/STM32H7xx_HAL_Driver/Src/stm32h7xx_hal_crc.c ****     This subsection permits to get in run-time the status of the peripheral.
 396:Drivers/STM32H7xx_HAL_Driver/Src/stm32h7xx_hal_crc.c **** 
 397:Drivers/STM32H7xx_HAL_Driver/Src/stm32h7xx_hal_crc.c **** @endverbatim
 398:Drivers/STM32H7xx_HAL_Driver/Src/stm32h7xx_hal_crc.c ****   * @{
 399:Drivers/STM32H7xx_HAL_Driver/Src/stm32h7xx_hal_crc.c ****   */
 400:Drivers/STM32H7xx_HAL_Driver/Src/stm32h7xx_hal_crc.c **** 
 401:Drivers/STM32H7xx_HAL_Driver/Src/stm32h7xx_hal_crc.c **** /**
 402:Drivers/STM32H7xx_HAL_Driver/Src/stm32h7xx_hal_crc.c ****   * @brief  Return the CRC handle state.
 403:Drivers/STM32H7xx_HAL_Driver/Src/stm32h7xx_hal_crc.c ****   * @param  hcrc CRC handle
 404:Drivers/STM32H7xx_HAL_Driver/Src/stm32h7xx_hal_crc.c ****   * @retval HAL state
 405:Drivers/STM32H7xx_HAL_Driver/Src/stm32h7xx_hal_crc.c ****   */
 406:Drivers/STM32H7xx_HAL_Driver/Src/stm32h7xx_hal_crc.c **** HAL_CRC_StateTypeDef HAL_CRC_GetState(const CRC_HandleTypeDef *hcrc)
 407:Drivers/STM32H7xx_HAL_Driver/Src/stm32h7xx_hal_crc.c **** {
 408:Drivers/STM32H7xx_HAL_Driver/Src/stm32h7xx_hal_crc.c ****   /* Return CRC handle state */
 409:Drivers/STM32H7xx_HAL_Driver/Src/stm32h7xx_hal_crc.c ****   return hcrc->State;
 410:Drivers/STM32H7xx_HAL_Driver/Src/stm32h7xx_hal_crc.c **** }
 411:Drivers/STM32H7xx_HAL_Driver/Src/stm32h7xx_hal_crc.c **** 
 412:Drivers/STM32H7xx_HAL_Driver/Src/stm32h7xx_hal_crc.c **** /**
 413:Drivers/STM32H7xx_HAL_Driver/Src/stm32h7xx_hal_crc.c ****   * @}
 414:Drivers/STM32H7xx_HAL_Driver/Src/stm32h7xx_hal_crc.c ****   */
 415:Drivers/STM32H7xx_HAL_Driver/Src/stm32h7xx_hal_crc.c **** 
 416:Drivers/STM32H7xx_HAL_Driver/Src/stm32h7xx_hal_crc.c **** /**
 417:Drivers/STM32H7xx_HAL_Driver/Src/stm32h7xx_hal_crc.c ****   * @}
 418:Drivers/STM32H7xx_HAL_Driver/Src/stm32h7xx_hal_crc.c ****   */
 419:Drivers/STM32H7xx_HAL_Driver/Src/stm32h7xx_hal_crc.c **** 
 420:Drivers/STM32H7xx_HAL_Driver/Src/stm32h7xx_hal_crc.c **** /** @addtogroup CRC_Private_Functions
 421:Drivers/STM32H7xx_HAL_Driver/Src/stm32h7xx_hal_crc.c ****   * @{
 422:Drivers/STM32H7xx_HAL_Driver/Src/stm32h7xx_hal_crc.c ****   */
 423:Drivers/STM32H7xx_HAL_Driver/Src/stm32h7xx_hal_crc.c **** 
 424:Drivers/STM32H7xx_HAL_Driver/Src/stm32h7xx_hal_crc.c **** /**
 425:Drivers/STM32H7xx_HAL_Driver/Src/stm32h7xx_hal_crc.c ****   * @brief  Enter 8-bit input data to the CRC calculator.
 426:Drivers/STM32H7xx_HAL_Driver/Src/stm32h7xx_hal_crc.c ****   *         Specific data handling to optimize processing time.
 427:Drivers/STM32H7xx_HAL_Driver/Src/stm32h7xx_hal_crc.c ****   * @param  hcrc CRC handle
 428:Drivers/STM32H7xx_HAL_Driver/Src/stm32h7xx_hal_crc.c ****   * @param  pBuffer pointer to the input data buffer
 429:Drivers/STM32H7xx_HAL_Driver/Src/stm32h7xx_hal_crc.c ****   * @param  BufferLength input data buffer length
 430:Drivers/STM32H7xx_HAL_Driver/Src/stm32h7xx_hal_crc.c ****   * @retval uint32_t CRC (returned value LSBs for CRC shorter than 32 bits)
ARM GAS  /var/folders/2r/ldzc7vgx4p51wnq3gxc1dn840000gn/T//cc5wJlMF.s 			page 9


 431:Drivers/STM32H7xx_HAL_Driver/Src/stm32h7xx_hal_crc.c ****   */
 432:Drivers/STM32H7xx_HAL_Driver/Src/stm32h7xx_hal_crc.c **** static uint32_t CRC_Handle_8(CRC_HandleTypeDef *hcrc, uint8_t pBuffer[], uint32_t BufferLength)
 433:Drivers/STM32H7xx_HAL_Driver/Src/stm32h7xx_hal_crc.c **** {
  28              		.loc 1 433 1 view -0
  29              		.cfi_startproc
  30              		@ args = 0, pretend = 0, frame = 0
  31              		@ frame_needed = 0, uses_anonymous_args = 0
  32              		.loc 1 433 1 is_stmt 0 view .LVU1
  33 0000 10B5     		push	{r4, lr}
  34              	.LCFI0:
  35              		.cfi_def_cfa_offset 8
  36              		.cfi_offset 4, -8
  37              		.cfi_offset 14, -4
 434:Drivers/STM32H7xx_HAL_Driver/Src/stm32h7xx_hal_crc.c ****   uint32_t i; /* input data buffer index */
  38              		.loc 1 434 3 is_stmt 1 view .LVU2
 435:Drivers/STM32H7xx_HAL_Driver/Src/stm32h7xx_hal_crc.c ****   uint16_t data;
  39              		.loc 1 435 3 view .LVU3
 436:Drivers/STM32H7xx_HAL_Driver/Src/stm32h7xx_hal_crc.c ****   __IO uint16_t *pReg;
  40              		.loc 1 436 3 view .LVU4
 437:Drivers/STM32H7xx_HAL_Driver/Src/stm32h7xx_hal_crc.c **** 
 438:Drivers/STM32H7xx_HAL_Driver/Src/stm32h7xx_hal_crc.c ****   /* Processing time optimization: 4 bytes are entered in a row with a single word write,
 439:Drivers/STM32H7xx_HAL_Driver/Src/stm32h7xx_hal_crc.c ****    * last bytes must be carefully fed to the CRC calculator to ensure a correct type
 440:Drivers/STM32H7xx_HAL_Driver/Src/stm32h7xx_hal_crc.c ****    * handling by the peripheral */
 441:Drivers/STM32H7xx_HAL_Driver/Src/stm32h7xx_hal_crc.c ****   for (i = 0U; i < (BufferLength / 4U); i++)
  41              		.loc 1 441 3 view .LVU5
  42              	.LVL1:
  43              		.loc 1 441 10 is_stmt 0 view .LVU6
  44 0002 4FF0000C 		mov	ip, #0
  45              		.loc 1 441 3 view .LVU7
  46 0006 14E0     		b	.L2
  47              	.LVL2:
  48              	.L3:
 442:Drivers/STM32H7xx_HAL_Driver/Src/stm32h7xx_hal_crc.c ****   {
 443:Drivers/STM32H7xx_HAL_Driver/Src/stm32h7xx_hal_crc.c ****     hcrc->Instance->DR = ((uint32_t)pBuffer[4U * i] << 24U) | \
  49              		.loc 1 443 5 is_stmt 1 view .LVU8
  50              		.loc 1 443 44 is_stmt 0 view .LVU9
  51 0008 11F82C40 		ldrb	r4, [r1, ip, lsl #2]	@ zero_extendqisi2
 444:Drivers/STM32H7xx_HAL_Driver/Src/stm32h7xx_hal_crc.c ****                          ((uint32_t)pBuffer[(4U * i) + 1U] << 16U) | \
  52              		.loc 1 444 44 view .LVU10
  53 000c 01EB8C0E 		add	lr, r1, ip, lsl #2
  54 0010 9EF80130 		ldrb	r3, [lr, #1]	@ zero_extendqisi2
  55              		.loc 1 444 60 view .LVU11
  56 0014 1B04     		lsls	r3, r3, #16
 443:Drivers/STM32H7xx_HAL_Driver/Src/stm32h7xx_hal_crc.c ****                          ((uint32_t)pBuffer[(4U * i) + 1U] << 16U) | \
  57              		.loc 1 443 61 view .LVU12
  58 0016 43EA0463 		orr	r3, r3, r4, lsl #24
 445:Drivers/STM32H7xx_HAL_Driver/Src/stm32h7xx_hal_crc.c ****                          ((uint32_t)pBuffer[(4U * i) + 2U] << 8U)  | \
  59              		.loc 1 445 44 view .LVU13
  60 001a 9EF80240 		ldrb	r4, [lr, #2]	@ zero_extendqisi2
 444:Drivers/STM32H7xx_HAL_Driver/Src/stm32h7xx_hal_crc.c ****                          ((uint32_t)pBuffer[(4U * i) + 1U] << 16U) | \
  61              		.loc 1 444 68 view .LVU14
  62 001e 43EA0423 		orr	r3, r3, r4, lsl #8
 446:Drivers/STM32H7xx_HAL_Driver/Src/stm32h7xx_hal_crc.c ****                          (uint32_t)pBuffer[(4U * i) + 3U];
  63              		.loc 1 446 43 view .LVU15
  64 0022 9EF803E0 		ldrb	lr, [lr, #3]	@ zero_extendqisi2
 445:Drivers/STM32H7xx_HAL_Driver/Src/stm32h7xx_hal_crc.c ****                          ((uint32_t)pBuffer[(4U * i) + 2U] << 8U)  | \
  65              		.loc 1 445 68 view .LVU16
ARM GAS  /var/folders/2r/ldzc7vgx4p51wnq3gxc1dn840000gn/T//cc5wJlMF.s 			page 10


  66 0026 43EA0E03 		orr	r3, r3, lr
 443:Drivers/STM32H7xx_HAL_Driver/Src/stm32h7xx_hal_crc.c ****                          ((uint32_t)pBuffer[(4U * i) + 1U] << 16U) | \
  67              		.loc 1 443 24 view .LVU17
  68 002a 0468     		ldr	r4, [r0]
  69 002c 2360     		str	r3, [r4]
 441:Drivers/STM32H7xx_HAL_Driver/Src/stm32h7xx_hal_crc.c ****   {
  70              		.loc 1 441 42 is_stmt 1 discriminator 3 view .LVU18
  71 002e 0CF1010C 		add	ip, ip, #1
  72              	.LVL3:
  73              	.L2:
 441:Drivers/STM32H7xx_HAL_Driver/Src/stm32h7xx_hal_crc.c ****   {
  74              		.loc 1 441 18 discriminator 1 view .LVU19
  75 0032 BCEB920F 		cmp	ip, r2, lsr #2
  76 0036 E7D3     		bcc	.L3
 447:Drivers/STM32H7xx_HAL_Driver/Src/stm32h7xx_hal_crc.c ****   }
 448:Drivers/STM32H7xx_HAL_Driver/Src/stm32h7xx_hal_crc.c ****   /* last bytes specific handling */
 449:Drivers/STM32H7xx_HAL_Driver/Src/stm32h7xx_hal_crc.c ****   if ((BufferLength % 4U) != 0U)
  77              		.loc 1 449 3 view .LVU20
  78              		.loc 1 449 6 is_stmt 0 view .LVU21
  79 0038 12F00302 		ands	r2, r2, #3
  80              	.LVL4:
  81              		.loc 1 449 6 view .LVU22
  82 003c 05D0     		beq	.L4
 450:Drivers/STM32H7xx_HAL_Driver/Src/stm32h7xx_hal_crc.c ****   {
 451:Drivers/STM32H7xx_HAL_Driver/Src/stm32h7xx_hal_crc.c ****     if ((BufferLength % 4U) == 1U)
  83              		.loc 1 451 5 is_stmt 1 view .LVU23
  84              		.loc 1 451 8 is_stmt 0 view .LVU24
  85 003e 012A     		cmp	r2, #1
  86 0040 06D0     		beq	.L8
  87              	.L5:
 452:Drivers/STM32H7xx_HAL_Driver/Src/stm32h7xx_hal_crc.c ****     {
 453:Drivers/STM32H7xx_HAL_Driver/Src/stm32h7xx_hal_crc.c ****       *(__IO uint8_t *)(__IO void *)(&hcrc->Instance->DR) = pBuffer[4U * i];         /* Derogation 
 454:Drivers/STM32H7xx_HAL_Driver/Src/stm32h7xx_hal_crc.c ****     }
 455:Drivers/STM32H7xx_HAL_Driver/Src/stm32h7xx_hal_crc.c ****     if ((BufferLength % 4U) == 2U)
  88              		.loc 1 455 5 is_stmt 1 view .LVU25
  89              		.loc 1 455 8 is_stmt 0 view .LVU26
  90 0042 022A     		cmp	r2, #2
  91 0044 09D0     		beq	.L9
  92              	.L6:
 456:Drivers/STM32H7xx_HAL_Driver/Src/stm32h7xx_hal_crc.c ****     {
 457:Drivers/STM32H7xx_HAL_Driver/Src/stm32h7xx_hal_crc.c ****       data = ((uint16_t)(pBuffer[4U * i]) << 8U) | (uint16_t)pBuffer[(4U * i) + 1U];
 458:Drivers/STM32H7xx_HAL_Driver/Src/stm32h7xx_hal_crc.c ****       pReg = (__IO uint16_t *)(__IO void *)(&hcrc->Instance->DR);                    /* Derogation 
 459:Drivers/STM32H7xx_HAL_Driver/Src/stm32h7xx_hal_crc.c ****       *pReg = data;
 460:Drivers/STM32H7xx_HAL_Driver/Src/stm32h7xx_hal_crc.c ****     }
 461:Drivers/STM32H7xx_HAL_Driver/Src/stm32h7xx_hal_crc.c ****     if ((BufferLength % 4U) == 3U)
  93              		.loc 1 461 5 is_stmt 1 view .LVU27
  94              		.loc 1 461 8 is_stmt 0 view .LVU28
  95 0046 032A     		cmp	r2, #3
  96 0048 11D0     		beq	.L10
  97              	.LVL5:
  98              	.L4:
 462:Drivers/STM32H7xx_HAL_Driver/Src/stm32h7xx_hal_crc.c ****     {
 463:Drivers/STM32H7xx_HAL_Driver/Src/stm32h7xx_hal_crc.c ****       data = ((uint16_t)(pBuffer[4U * i]) << 8U) | (uint16_t)pBuffer[(4U * i) + 1U];
 464:Drivers/STM32H7xx_HAL_Driver/Src/stm32h7xx_hal_crc.c ****       pReg = (__IO uint16_t *)(__IO void *)(&hcrc->Instance->DR);                    /* Derogation 
 465:Drivers/STM32H7xx_HAL_Driver/Src/stm32h7xx_hal_crc.c ****       *pReg = data;
 466:Drivers/STM32H7xx_HAL_Driver/Src/stm32h7xx_hal_crc.c **** 
 467:Drivers/STM32H7xx_HAL_Driver/Src/stm32h7xx_hal_crc.c ****       *(__IO uint8_t *)(__IO void *)(&hcrc->Instance->DR) = pBuffer[(4U * i) + 2U];  /* Derogation 
ARM GAS  /var/folders/2r/ldzc7vgx4p51wnq3gxc1dn840000gn/T//cc5wJlMF.s 			page 11


 468:Drivers/STM32H7xx_HAL_Driver/Src/stm32h7xx_hal_crc.c ****     }
 469:Drivers/STM32H7xx_HAL_Driver/Src/stm32h7xx_hal_crc.c ****   }
 470:Drivers/STM32H7xx_HAL_Driver/Src/stm32h7xx_hal_crc.c **** 
 471:Drivers/STM32H7xx_HAL_Driver/Src/stm32h7xx_hal_crc.c ****   /* Return the CRC computed value */
 472:Drivers/STM32H7xx_HAL_Driver/Src/stm32h7xx_hal_crc.c ****   return hcrc->Instance->DR;
  99              		.loc 1 472 3 is_stmt 1 view .LVU29
 100              		.loc 1 472 14 is_stmt 0 view .LVU30
 101 004a 0368     		ldr	r3, [r0]
 102              		.loc 1 472 24 view .LVU31
 103 004c 1868     		ldr	r0, [r3]
 104              	.LVL6:
 473:Drivers/STM32H7xx_HAL_Driver/Src/stm32h7xx_hal_crc.c **** }
 105              		.loc 1 473 1 view .LVU32
 106 004e 10BD     		pop	{r4, pc}
 107              	.LVL7:
 108              	.L8:
 453:Drivers/STM32H7xx_HAL_Driver/Src/stm32h7xx_hal_crc.c ****     }
 109              		.loc 1 453 7 is_stmt 1 view .LVU33
 453:Drivers/STM32H7xx_HAL_Driver/Src/stm32h7xx_hal_crc.c ****     }
 110              		.loc 1 453 43 is_stmt 0 view .LVU34
 111 0050 0368     		ldr	r3, [r0]
 453:Drivers/STM32H7xx_HAL_Driver/Src/stm32h7xx_hal_crc.c ****     }
 112              		.loc 1 453 68 view .LVU35
 113 0052 11F82C40 		ldrb	r4, [r1, ip, lsl #2]	@ zero_extendqisi2
 453:Drivers/STM32H7xx_HAL_Driver/Src/stm32h7xx_hal_crc.c ****     }
 114              		.loc 1 453 59 view .LVU36
 115 0056 1C70     		strb	r4, [r3]
 116 0058 F3E7     		b	.L5
 117              	.L9:
 457:Drivers/STM32H7xx_HAL_Driver/Src/stm32h7xx_hal_crc.c ****       pReg = (__IO uint16_t *)(__IO void *)(&hcrc->Instance->DR);                    /* Derogation 
 118              		.loc 1 457 7 is_stmt 1 view .LVU37
 457:Drivers/STM32H7xx_HAL_Driver/Src/stm32h7xx_hal_crc.c ****       pReg = (__IO uint16_t *)(__IO void *)(&hcrc->Instance->DR);                    /* Derogation 
 119              		.loc 1 457 33 is_stmt 0 view .LVU38
 120 005a 11F82C40 		ldrb	r4, [r1, ip, lsl #2]	@ zero_extendqisi2
 457:Drivers/STM32H7xx_HAL_Driver/Src/stm32h7xx_hal_crc.c ****       pReg = (__IO uint16_t *)(__IO void *)(&hcrc->Instance->DR);                    /* Derogation 
 121              		.loc 1 457 69 view .LVU39
 122 005e 01EB8C03 		add	r3, r1, ip, lsl #2
 123 0062 5B78     		ldrb	r3, [r3, #1]	@ zero_extendqisi2
 457:Drivers/STM32H7xx_HAL_Driver/Src/stm32h7xx_hal_crc.c ****       pReg = (__IO uint16_t *)(__IO void *)(&hcrc->Instance->DR);                    /* Derogation 
 124              		.loc 1 457 12 view .LVU40
 125 0064 43EA0423 		orr	r3, r3, r4, lsl #8
 126              	.LVL8:
 458:Drivers/STM32H7xx_HAL_Driver/Src/stm32h7xx_hal_crc.c ****       *pReg = data;
 127              		.loc 1 458 7 is_stmt 1 view .LVU41
 458:Drivers/STM32H7xx_HAL_Driver/Src/stm32h7xx_hal_crc.c ****       *pReg = data;
 128              		.loc 1 458 50 is_stmt 0 view .LVU42
 129 0068 0468     		ldr	r4, [r0]
 130              	.LVL9:
 459:Drivers/STM32H7xx_HAL_Driver/Src/stm32h7xx_hal_crc.c ****     }
 131              		.loc 1 459 7 is_stmt 1 view .LVU43
 459:Drivers/STM32H7xx_HAL_Driver/Src/stm32h7xx_hal_crc.c ****     }
 132              		.loc 1 459 13 is_stmt 0 view .LVU44
 133 006a 2380     		strh	r3, [r4]	@ movhi
 134 006c EBE7     		b	.L6
 135              	.LVL10:
 136              	.L10:
 463:Drivers/STM32H7xx_HAL_Driver/Src/stm32h7xx_hal_crc.c ****       pReg = (__IO uint16_t *)(__IO void *)(&hcrc->Instance->DR);                    /* Derogation 
ARM GAS  /var/folders/2r/ldzc7vgx4p51wnq3gxc1dn840000gn/T//cc5wJlMF.s 			page 12


 137              		.loc 1 463 7 is_stmt 1 view .LVU45
 463:Drivers/STM32H7xx_HAL_Driver/Src/stm32h7xx_hal_crc.c ****       pReg = (__IO uint16_t *)(__IO void *)(&hcrc->Instance->DR);                    /* Derogation 
 138              		.loc 1 463 33 is_stmt 0 view .LVU46
 139 006e 11F82C20 		ldrb	r2, [r1, ip, lsl #2]	@ zero_extendqisi2
 463:Drivers/STM32H7xx_HAL_Driver/Src/stm32h7xx_hal_crc.c ****       pReg = (__IO uint16_t *)(__IO void *)(&hcrc->Instance->DR);                    /* Derogation 
 140              		.loc 1 463 69 view .LVU47
 141 0072 01EB8C01 		add	r1, r1, ip, lsl #2
 142              	.LVL11:
 463:Drivers/STM32H7xx_HAL_Driver/Src/stm32h7xx_hal_crc.c ****       pReg = (__IO uint16_t *)(__IO void *)(&hcrc->Instance->DR);                    /* Derogation 
 143              		.loc 1 463 69 view .LVU48
 144 0076 4B78     		ldrb	r3, [r1, #1]	@ zero_extendqisi2
 463:Drivers/STM32H7xx_HAL_Driver/Src/stm32h7xx_hal_crc.c ****       pReg = (__IO uint16_t *)(__IO void *)(&hcrc->Instance->DR);                    /* Derogation 
 145              		.loc 1 463 12 view .LVU49
 146 0078 43EA0223 		orr	r3, r3, r2, lsl #8
 147              	.LVL12:
 464:Drivers/STM32H7xx_HAL_Driver/Src/stm32h7xx_hal_crc.c ****       *pReg = data;
 148              		.loc 1 464 7 is_stmt 1 view .LVU50
 464:Drivers/STM32H7xx_HAL_Driver/Src/stm32h7xx_hal_crc.c ****       *pReg = data;
 149              		.loc 1 464 50 is_stmt 0 view .LVU51
 150 007c 0268     		ldr	r2, [r0]
 151              	.LVL13:
 465:Drivers/STM32H7xx_HAL_Driver/Src/stm32h7xx_hal_crc.c **** 
 152              		.loc 1 465 7 is_stmt 1 view .LVU52
 465:Drivers/STM32H7xx_HAL_Driver/Src/stm32h7xx_hal_crc.c **** 
 153              		.loc 1 465 13 is_stmt 0 view .LVU53
 154 007e 1380     		strh	r3, [r2]	@ movhi
 467:Drivers/STM32H7xx_HAL_Driver/Src/stm32h7xx_hal_crc.c ****     }
 155              		.loc 1 467 7 is_stmt 1 view .LVU54
 467:Drivers/STM32H7xx_HAL_Driver/Src/stm32h7xx_hal_crc.c ****     }
 156              		.loc 1 467 43 is_stmt 0 view .LVU55
 157 0080 0368     		ldr	r3, [r0]
 158              	.LVL14:
 467:Drivers/STM32H7xx_HAL_Driver/Src/stm32h7xx_hal_crc.c ****     }
 159              		.loc 1 467 68 view .LVU56
 160 0082 8A78     		ldrb	r2, [r1, #2]	@ zero_extendqisi2
 161              	.LVL15:
 467:Drivers/STM32H7xx_HAL_Driver/Src/stm32h7xx_hal_crc.c ****     }
 162              		.loc 1 467 59 view .LVU57
 163 0084 1A70     		strb	r2, [r3]
 467:Drivers/STM32H7xx_HAL_Driver/Src/stm32h7xx_hal_crc.c ****     }
 164              		.loc 1 467 59 view .LVU58
 165 0086 E0E7     		b	.L4
 166              		.cfi_endproc
 167              	.LFE357:
 169              		.section	.text.CRC_Handle_16,"ax",%progbits
 170              		.align	1
 171              		.syntax unified
 172              		.thumb
 173              		.thumb_func
 175              	CRC_Handle_16:
 176              	.LVL16:
 177              	.LFB358:
 474:Drivers/STM32H7xx_HAL_Driver/Src/stm32h7xx_hal_crc.c **** 
 475:Drivers/STM32H7xx_HAL_Driver/Src/stm32h7xx_hal_crc.c **** /**
 476:Drivers/STM32H7xx_HAL_Driver/Src/stm32h7xx_hal_crc.c ****   * @brief  Enter 16-bit input data to the CRC calculator.
 477:Drivers/STM32H7xx_HAL_Driver/Src/stm32h7xx_hal_crc.c ****   *         Specific data handling to optimize processing time.
 478:Drivers/STM32H7xx_HAL_Driver/Src/stm32h7xx_hal_crc.c ****   * @param  hcrc CRC handle
ARM GAS  /var/folders/2r/ldzc7vgx4p51wnq3gxc1dn840000gn/T//cc5wJlMF.s 			page 13


 479:Drivers/STM32H7xx_HAL_Driver/Src/stm32h7xx_hal_crc.c ****   * @param  pBuffer pointer to the input data buffer
 480:Drivers/STM32H7xx_HAL_Driver/Src/stm32h7xx_hal_crc.c ****   * @param  BufferLength input data buffer length
 481:Drivers/STM32H7xx_HAL_Driver/Src/stm32h7xx_hal_crc.c ****   * @retval uint32_t CRC (returned value LSBs for CRC shorter than 32 bits)
 482:Drivers/STM32H7xx_HAL_Driver/Src/stm32h7xx_hal_crc.c ****   */
 483:Drivers/STM32H7xx_HAL_Driver/Src/stm32h7xx_hal_crc.c **** static uint32_t CRC_Handle_16(CRC_HandleTypeDef *hcrc, uint16_t pBuffer[], uint32_t BufferLength)
 484:Drivers/STM32H7xx_HAL_Driver/Src/stm32h7xx_hal_crc.c **** {
 178              		.loc 1 484 1 is_stmt 1 view -0
 179              		.cfi_startproc
 180              		@ args = 0, pretend = 0, frame = 0
 181              		@ frame_needed = 0, uses_anonymous_args = 0
 182              		@ link register save eliminated.
 485:Drivers/STM32H7xx_HAL_Driver/Src/stm32h7xx_hal_crc.c ****   uint32_t i;  /* input data buffer index */
 183              		.loc 1 485 3 view .LVU60
 486:Drivers/STM32H7xx_HAL_Driver/Src/stm32h7xx_hal_crc.c ****   __IO uint16_t *pReg;
 184              		.loc 1 486 3 view .LVU61
 487:Drivers/STM32H7xx_HAL_Driver/Src/stm32h7xx_hal_crc.c **** 
 488:Drivers/STM32H7xx_HAL_Driver/Src/stm32h7xx_hal_crc.c ****   /* Processing time optimization: 2 HalfWords are entered in a row with a single word write,
 489:Drivers/STM32H7xx_HAL_Driver/Src/stm32h7xx_hal_crc.c ****    * in case of odd length, last HalfWord must be carefully fed to the CRC calculator to ensure
 490:Drivers/STM32H7xx_HAL_Driver/Src/stm32h7xx_hal_crc.c ****    * a correct type handling by the peripheral */
 491:Drivers/STM32H7xx_HAL_Driver/Src/stm32h7xx_hal_crc.c ****   for (i = 0U; i < (BufferLength / 2U); i++)
 185              		.loc 1 491 3 view .LVU62
 186              		.loc 1 491 10 is_stmt 0 view .LVU63
 187 0000 0023     		movs	r3, #0
 188              	.LVL17:
 189              		.loc 1 491 18 is_stmt 1 discriminator 1 view .LVU64
 190 0002 B3EB520F 		cmp	r3, r2, lsr #1
 191 0006 18D2     		bcs	.L21
 484:Drivers/STM32H7xx_HAL_Driver/Src/stm32h7xx_hal_crc.c ****   uint32_t i;  /* input data buffer index */
 192              		.loc 1 484 1 is_stmt 0 view .LVU65
 193 0008 30B4     		push	{r4, r5}
 194              	.LCFI1:
 195              		.cfi_def_cfa_offset 8
 196              		.cfi_offset 4, -8
 197              		.cfi_offset 5, -4
 198              	.L13:
 492:Drivers/STM32H7xx_HAL_Driver/Src/stm32h7xx_hal_crc.c ****   {
 493:Drivers/STM32H7xx_HAL_Driver/Src/stm32h7xx_hal_crc.c ****     hcrc->Instance->DR = ((uint32_t)pBuffer[2U * i] << 16U) | (uint32_t)pBuffer[(2U * i) + 1U];
 199              		.loc 1 493 5 is_stmt 1 view .LVU66
 200              		.loc 1 493 44 is_stmt 0 view .LVU67
 201 000a 31F823C0 		ldrh	ip, [r1, r3, lsl #2]
 202              		.loc 1 493 80 view .LVU68
 203 000e 01EB8304 		add	r4, r1, r3, lsl #2
 204 0012 6488     		ldrh	r4, [r4, #2]
 205              		.loc 1 493 61 view .LVU69
 206 0014 44EA0C44 		orr	r4, r4, ip, lsl #16
 207              		.loc 1 493 24 view .LVU70
 208 0018 0568     		ldr	r5, [r0]
 209 001a 2C60     		str	r4, [r5]
 491:Drivers/STM32H7xx_HAL_Driver/Src/stm32h7xx_hal_crc.c ****   {
 210              		.loc 1 491 42 is_stmt 1 discriminator 3 view .LVU71
 211 001c 0133     		adds	r3, r3, #1
 212              	.LVL18:
 491:Drivers/STM32H7xx_HAL_Driver/Src/stm32h7xx_hal_crc.c ****   {
 213              		.loc 1 491 18 discriminator 1 view .LVU72
 214 001e B3EB520F 		cmp	r3, r2, lsr #1
 215 0022 F2D3     		bcc	.L13
 494:Drivers/STM32H7xx_HAL_Driver/Src/stm32h7xx_hal_crc.c ****   }
ARM GAS  /var/folders/2r/ldzc7vgx4p51wnq3gxc1dn840000gn/T//cc5wJlMF.s 			page 14


 495:Drivers/STM32H7xx_HAL_Driver/Src/stm32h7xx_hal_crc.c ****   if ((BufferLength % 2U) != 0U)
 216              		.loc 1 495 3 view .LVU73
 217              		.loc 1 495 6 is_stmt 0 view .LVU74
 218 0024 12F0010F 		tst	r2, #1
 219 0028 03D0     		beq	.L14
 496:Drivers/STM32H7xx_HAL_Driver/Src/stm32h7xx_hal_crc.c ****   {
 497:Drivers/STM32H7xx_HAL_Driver/Src/stm32h7xx_hal_crc.c ****     pReg = (__IO uint16_t *)(__IO void *)(&hcrc->Instance->DR);                 /* Derogation Misra
 220              		.loc 1 497 5 is_stmt 1 view .LVU75
 221              		.loc 1 497 48 is_stmt 0 view .LVU76
 222 002a 0268     		ldr	r2, [r0]
 223              	.LVL19:
 498:Drivers/STM32H7xx_HAL_Driver/Src/stm32h7xx_hal_crc.c ****     *pReg = pBuffer[2U * i];
 224              		.loc 1 498 5 is_stmt 1 view .LVU77
 225              		.loc 1 498 20 is_stmt 0 view .LVU78
 226 002c 31F82330 		ldrh	r3, [r1, r3, lsl #2]
 227              	.LVL20:
 228              		.loc 1 498 11 view .LVU79
 229 0030 1380     		strh	r3, [r2]	@ movhi
 230              	.LVL21:
 231              	.L14:
 499:Drivers/STM32H7xx_HAL_Driver/Src/stm32h7xx_hal_crc.c ****   }
 500:Drivers/STM32H7xx_HAL_Driver/Src/stm32h7xx_hal_crc.c **** 
 501:Drivers/STM32H7xx_HAL_Driver/Src/stm32h7xx_hal_crc.c ****   /* Return the CRC computed value */
 502:Drivers/STM32H7xx_HAL_Driver/Src/stm32h7xx_hal_crc.c ****   return hcrc->Instance->DR;
 232              		.loc 1 502 3 is_stmt 1 view .LVU80
 233              		.loc 1 502 14 is_stmt 0 view .LVU81
 234 0032 0368     		ldr	r3, [r0]
 235              		.loc 1 502 24 view .LVU82
 236 0034 1868     		ldr	r0, [r3]
 237              	.LVL22:
 503:Drivers/STM32H7xx_HAL_Driver/Src/stm32h7xx_hal_crc.c **** }
 238              		.loc 1 503 1 view .LVU83
 239 0036 30BC     		pop	{r4, r5}
 240              	.LCFI2:
 241              		.cfi_restore 5
 242              		.cfi_restore 4
 243              		.cfi_def_cfa_offset 0
 244 0038 7047     		bx	lr
 245              	.LVL23:
 246              	.L21:
 495:Drivers/STM32H7xx_HAL_Driver/Src/stm32h7xx_hal_crc.c ****   {
 247              		.loc 1 495 3 is_stmt 1 view .LVU84
 495:Drivers/STM32H7xx_HAL_Driver/Src/stm32h7xx_hal_crc.c ****   {
 248              		.loc 1 495 6 is_stmt 0 view .LVU85
 249 003a 12F0010F 		tst	r2, #1
 250 003e 03D0     		beq	.L19
 497:Drivers/STM32H7xx_HAL_Driver/Src/stm32h7xx_hal_crc.c ****     *pReg = pBuffer[2U * i];
 251              		.loc 1 497 5 is_stmt 1 view .LVU86
 497:Drivers/STM32H7xx_HAL_Driver/Src/stm32h7xx_hal_crc.c ****     *pReg = pBuffer[2U * i];
 252              		.loc 1 497 48 is_stmt 0 view .LVU87
 253 0040 0268     		ldr	r2, [r0]
 254              	.LVL24:
 498:Drivers/STM32H7xx_HAL_Driver/Src/stm32h7xx_hal_crc.c ****   }
 255              		.loc 1 498 5 is_stmt 1 view .LVU88
 498:Drivers/STM32H7xx_HAL_Driver/Src/stm32h7xx_hal_crc.c ****   }
 256              		.loc 1 498 20 is_stmt 0 view .LVU89
 257 0042 31F82330 		ldrh	r3, [r1, r3, lsl #2]
ARM GAS  /var/folders/2r/ldzc7vgx4p51wnq3gxc1dn840000gn/T//cc5wJlMF.s 			page 15


 258              	.LVL25:
 498:Drivers/STM32H7xx_HAL_Driver/Src/stm32h7xx_hal_crc.c ****   }
 259              		.loc 1 498 11 view .LVU90
 260 0046 1380     		strh	r3, [r2]	@ movhi
 261              	.LVL26:
 262              	.L19:
 502:Drivers/STM32H7xx_HAL_Driver/Src/stm32h7xx_hal_crc.c **** }
 263              		.loc 1 502 3 is_stmt 1 view .LVU91
 502:Drivers/STM32H7xx_HAL_Driver/Src/stm32h7xx_hal_crc.c **** }
 264              		.loc 1 502 14 is_stmt 0 view .LVU92
 265 0048 0368     		ldr	r3, [r0]
 502:Drivers/STM32H7xx_HAL_Driver/Src/stm32h7xx_hal_crc.c **** }
 266              		.loc 1 502 24 view .LVU93
 267 004a 1868     		ldr	r0, [r3]
 268              	.LVL27:
 269              		.loc 1 503 1 view .LVU94
 270 004c 7047     		bx	lr
 271              		.cfi_endproc
 272              	.LFE358:
 274              		.section	.text.HAL_CRC_MspInit,"ax",%progbits
 275              		.align	1
 276              		.weak	HAL_CRC_MspInit
 277              		.syntax unified
 278              		.thumb
 279              		.thumb_func
 281              	HAL_CRC_MspInit:
 282              	.LVL28:
 283              	.LFB352:
 224:Drivers/STM32H7xx_HAL_Driver/Src/stm32h7xx_hal_crc.c ****   /* Prevent unused argument(s) compilation warning */
 284              		.loc 1 224 1 is_stmt 1 view -0
 285              		.cfi_startproc
 286              		@ args = 0, pretend = 0, frame = 0
 287              		@ frame_needed = 0, uses_anonymous_args = 0
 288              		@ link register save eliminated.
 226:Drivers/STM32H7xx_HAL_Driver/Src/stm32h7xx_hal_crc.c **** 
 289              		.loc 1 226 3 view .LVU96
 231:Drivers/STM32H7xx_HAL_Driver/Src/stm32h7xx_hal_crc.c **** 
 290              		.loc 1 231 1 is_stmt 0 view .LVU97
 291 0000 7047     		bx	lr
 292              		.cfi_endproc
 293              	.LFE352:
 295              		.section	.text.HAL_CRC_Init,"ax",%progbits
 296              		.align	1
 297              		.global	HAL_CRC_Init
 298              		.syntax unified
 299              		.thumb
 300              		.thumb_func
 302              	HAL_CRC_Init:
 303              	.LVL29:
 304              	.LFB350:
 104:Drivers/STM32H7xx_HAL_Driver/Src/stm32h7xx_hal_crc.c ****   /* Check the CRC handle allocation */
 305              		.loc 1 104 1 is_stmt 1 view -0
 306              		.cfi_startproc
 307              		@ args = 0, pretend = 0, frame = 0
 308              		@ frame_needed = 0, uses_anonymous_args = 0
 106:Drivers/STM32H7xx_HAL_Driver/Src/stm32h7xx_hal_crc.c ****   {
 309              		.loc 1 106 3 view .LVU99
ARM GAS  /var/folders/2r/ldzc7vgx4p51wnq3gxc1dn840000gn/T//cc5wJlMF.s 			page 16


 106:Drivers/STM32H7xx_HAL_Driver/Src/stm32h7xx_hal_crc.c ****   {
 310              		.loc 1 106 6 is_stmt 0 view .LVU100
 311 0000 0028     		cmp	r0, #0
 312 0002 38D0     		beq	.L30
 104:Drivers/STM32H7xx_HAL_Driver/Src/stm32h7xx_hal_crc.c ****   /* Check the CRC handle allocation */
 313              		.loc 1 104 1 view .LVU101
 314 0004 10B5     		push	{r4, lr}
 315              	.LCFI3:
 316              		.cfi_def_cfa_offset 8
 317              		.cfi_offset 4, -8
 318              		.cfi_offset 14, -4
 319 0006 0446     		mov	r4, r0
 112:Drivers/STM32H7xx_HAL_Driver/Src/stm32h7xx_hal_crc.c **** 
 320              		.loc 1 112 3 is_stmt 1 view .LVU102
 114:Drivers/STM32H7xx_HAL_Driver/Src/stm32h7xx_hal_crc.c ****   {
 321              		.loc 1 114 3 view .LVU103
 114:Drivers/STM32H7xx_HAL_Driver/Src/stm32h7xx_hal_crc.c ****   {
 322              		.loc 1 114 11 is_stmt 0 view .LVU104
 323 0008 437F     		ldrb	r3, [r0, #29]	@ zero_extendqisi2
 114:Drivers/STM32H7xx_HAL_Driver/Src/stm32h7xx_hal_crc.c ****   {
 324              		.loc 1 114 6 view .LVU105
 325 000a 1BB3     		cbz	r3, .L36
 326              	.LVL30:
 327              	.L25:
 122:Drivers/STM32H7xx_HAL_Driver/Src/stm32h7xx_hal_crc.c **** 
 328              		.loc 1 122 3 is_stmt 1 view .LVU106
 122:Drivers/STM32H7xx_HAL_Driver/Src/stm32h7xx_hal_crc.c **** 
 329              		.loc 1 122 15 is_stmt 0 view .LVU107
 330 000c 0223     		movs	r3, #2
 331 000e 6377     		strb	r3, [r4, #29]
 126:Drivers/STM32H7xx_HAL_Driver/Src/stm32h7xx_hal_crc.c ****   if (hcrc->Init.DefaultPolynomialUse == DEFAULT_POLYNOMIAL_ENABLE)
 332              		.loc 1 126 3 is_stmt 1 view .LVU108
 127:Drivers/STM32H7xx_HAL_Driver/Src/stm32h7xx_hal_crc.c ****   {
 333              		.loc 1 127 3 view .LVU109
 127:Drivers/STM32H7xx_HAL_Driver/Src/stm32h7xx_hal_crc.c ****   {
 334              		.loc 1 127 17 is_stmt 0 view .LVU110
 335 0010 2379     		ldrb	r3, [r4, #4]	@ zero_extendqisi2
 127:Drivers/STM32H7xx_HAL_Driver/Src/stm32h7xx_hal_crc.c ****   {
 336              		.loc 1 127 6 view .LVU111
 337 0012 1BBB     		cbnz	r3, .L26
 130:Drivers/STM32H7xx_HAL_Driver/Src/stm32h7xx_hal_crc.c ****     MODIFY_REG(hcrc->Instance->CR, CRC_CR_POLYSIZE, CRC_POLYLENGTH_32B);
 338              		.loc 1 130 5 is_stmt 1 view .LVU112
 339 0014 2368     		ldr	r3, [r4]
 340 0016 194A     		ldr	r2, .L37
 341 0018 5A61     		str	r2, [r3, #20]
 131:Drivers/STM32H7xx_HAL_Driver/Src/stm32h7xx_hal_crc.c ****   }
 342              		.loc 1 131 5 view .LVU113
 343 001a 2268     		ldr	r2, [r4]
 344 001c 9368     		ldr	r3, [r2, #8]
 345 001e 23F01803 		bic	r3, r3, #24
 346 0022 9360     		str	r3, [r2, #8]
 347              	.L27:
 144:Drivers/STM32H7xx_HAL_Driver/Src/stm32h7xx_hal_crc.c ****   if (hcrc->Init.DefaultInitValueUse == DEFAULT_INIT_VALUE_ENABLE)
 348              		.loc 1 144 3 view .LVU114
 145:Drivers/STM32H7xx_HAL_Driver/Src/stm32h7xx_hal_crc.c ****   {
 349              		.loc 1 145 3 view .LVU115
 145:Drivers/STM32H7xx_HAL_Driver/Src/stm32h7xx_hal_crc.c ****   {
ARM GAS  /var/folders/2r/ldzc7vgx4p51wnq3gxc1dn840000gn/T//cc5wJlMF.s 			page 17


 350              		.loc 1 145 17 is_stmt 0 view .LVU116
 351 0024 6379     		ldrb	r3, [r4, #5]	@ zero_extendqisi2
 145:Drivers/STM32H7xx_HAL_Driver/Src/stm32h7xx_hal_crc.c ****   {
 352              		.loc 1 145 6 view .LVU117
 353 0026 13BB     		cbnz	r3, .L28
 147:Drivers/STM32H7xx_HAL_Driver/Src/stm32h7xx_hal_crc.c ****   }
 354              		.loc 1 147 5 is_stmt 1 view .LVU118
 355 0028 2368     		ldr	r3, [r4]
 356 002a 4FF0FF32 		mov	r2, #-1
 357 002e 1A61     		str	r2, [r3, #16]
 358              	.L29:
 156:Drivers/STM32H7xx_HAL_Driver/Src/stm32h7xx_hal_crc.c ****   MODIFY_REG(hcrc->Instance->CR, CRC_CR_REV_IN, hcrc->Init.InputDataInversionMode);
 359              		.loc 1 156 3 view .LVU119
 157:Drivers/STM32H7xx_HAL_Driver/Src/stm32h7xx_hal_crc.c **** 
 360              		.loc 1 157 3 view .LVU120
 361 0030 2268     		ldr	r2, [r4]
 362 0032 9368     		ldr	r3, [r2, #8]
 363 0034 23F06003 		bic	r3, r3, #96
 364 0038 6169     		ldr	r1, [r4, #20]
 365 003a 0B43     		orrs	r3, r3, r1
 366 003c 9360     		str	r3, [r2, #8]
 160:Drivers/STM32H7xx_HAL_Driver/Src/stm32h7xx_hal_crc.c ****   MODIFY_REG(hcrc->Instance->CR, CRC_CR_REV_OUT, hcrc->Init.OutputDataInversionMode);
 367              		.loc 1 160 3 view .LVU121
 161:Drivers/STM32H7xx_HAL_Driver/Src/stm32h7xx_hal_crc.c **** 
 368              		.loc 1 161 3 view .LVU122
 369 003e 2268     		ldr	r2, [r4]
 370 0040 9368     		ldr	r3, [r2, #8]
 371 0042 23F08003 		bic	r3, r3, #128
 372 0046 A169     		ldr	r1, [r4, #24]
 373 0048 0B43     		orrs	r3, r3, r1
 374 004a 9360     		str	r3, [r2, #8]
 165:Drivers/STM32H7xx_HAL_Driver/Src/stm32h7xx_hal_crc.c **** 
 375              		.loc 1 165 3 view .LVU123
 168:Drivers/STM32H7xx_HAL_Driver/Src/stm32h7xx_hal_crc.c **** 
 376              		.loc 1 168 3 view .LVU124
 168:Drivers/STM32H7xx_HAL_Driver/Src/stm32h7xx_hal_crc.c **** 
 377              		.loc 1 168 15 is_stmt 0 view .LVU125
 378 004c 0123     		movs	r3, #1
 379 004e 6377     		strb	r3, [r4, #29]
 171:Drivers/STM32H7xx_HAL_Driver/Src/stm32h7xx_hal_crc.c **** }
 380              		.loc 1 171 3 is_stmt 1 view .LVU126
 171:Drivers/STM32H7xx_HAL_Driver/Src/stm32h7xx_hal_crc.c **** }
 381              		.loc 1 171 10 is_stmt 0 view .LVU127
 382 0050 0020     		movs	r0, #0
 383              	.L24:
 172:Drivers/STM32H7xx_HAL_Driver/Src/stm32h7xx_hal_crc.c **** 
 384              		.loc 1 172 1 view .LVU128
 385 0052 10BD     		pop	{r4, pc}
 386              	.LVL31:
 387              	.L36:
 117:Drivers/STM32H7xx_HAL_Driver/Src/stm32h7xx_hal_crc.c ****     /* Init the low level hardware */
 388              		.loc 1 117 5 is_stmt 1 view .LVU129
 117:Drivers/STM32H7xx_HAL_Driver/Src/stm32h7xx_hal_crc.c ****     /* Init the low level hardware */
 389              		.loc 1 117 16 is_stmt 0 view .LVU130
 390 0054 0377     		strb	r3, [r0, #28]
 119:Drivers/STM32H7xx_HAL_Driver/Src/stm32h7xx_hal_crc.c ****   }
 391              		.loc 1 119 5 is_stmt 1 view .LVU131
ARM GAS  /var/folders/2r/ldzc7vgx4p51wnq3gxc1dn840000gn/T//cc5wJlMF.s 			page 18


 392 0056 FFF7FEFF 		bl	HAL_CRC_MspInit
 393              	.LVL32:
 119:Drivers/STM32H7xx_HAL_Driver/Src/stm32h7xx_hal_crc.c ****   }
 394              		.loc 1 119 5 is_stmt 0 view .LVU132
 395 005a D7E7     		b	.L25
 396              	.L26:
 136:Drivers/STM32H7xx_HAL_Driver/Src/stm32h7xx_hal_crc.c ****     {
 397              		.loc 1 136 5 is_stmt 1 view .LVU133
 136:Drivers/STM32H7xx_HAL_Driver/Src/stm32h7xx_hal_crc.c ****     {
 398              		.loc 1 136 9 is_stmt 0 view .LVU134
 399 005c E268     		ldr	r2, [r4, #12]
 400 005e A168     		ldr	r1, [r4, #8]
 401 0060 2046     		mov	r0, r4
 402 0062 FFF7FEFF 		bl	HAL_CRCEx_Polynomial_Set
 403              	.LVL33:
 136:Drivers/STM32H7xx_HAL_Driver/Src/stm32h7xx_hal_crc.c ****     {
 404              		.loc 1 136 8 discriminator 1 view .LVU135
 405 0066 0028     		cmp	r0, #0
 406 0068 DCD0     		beq	.L27
 138:Drivers/STM32H7xx_HAL_Driver/Src/stm32h7xx_hal_crc.c ****     }
 407              		.loc 1 138 14 view .LVU136
 408 006a 0120     		movs	r0, #1
 409 006c F1E7     		b	.L24
 410              	.L28:
 151:Drivers/STM32H7xx_HAL_Driver/Src/stm32h7xx_hal_crc.c ****   }
 411              		.loc 1 151 5 is_stmt 1 view .LVU137
 412 006e 2368     		ldr	r3, [r4]
 413 0070 2269     		ldr	r2, [r4, #16]
 414 0072 1A61     		str	r2, [r3, #16]
 415 0074 DCE7     		b	.L29
 416              	.LVL34:
 417              	.L30:
 418              	.LCFI4:
 419              		.cfi_def_cfa_offset 0
 420              		.cfi_restore 4
 421              		.cfi_restore 14
 108:Drivers/STM32H7xx_HAL_Driver/Src/stm32h7xx_hal_crc.c ****   }
 422              		.loc 1 108 12 is_stmt 0 view .LVU138
 423 0076 0120     		movs	r0, #1
 424              	.LVL35:
 172:Drivers/STM32H7xx_HAL_Driver/Src/stm32h7xx_hal_crc.c **** 
 425              		.loc 1 172 1 view .LVU139
 426 0078 7047     		bx	lr
 427              	.L38:
 428 007a 00BF     		.align	2
 429              	.L37:
 430 007c B71DC104 		.word	79764919
 431              		.cfi_endproc
 432              	.LFE350:
 434              		.section	.text.HAL_CRC_MspDeInit,"ax",%progbits
 435              		.align	1
 436              		.weak	HAL_CRC_MspDeInit
 437              		.syntax unified
 438              		.thumb
 439              		.thumb_func
 441              	HAL_CRC_MspDeInit:
 442              	.LVL36:
ARM GAS  /var/folders/2r/ldzc7vgx4p51wnq3gxc1dn840000gn/T//cc5wJlMF.s 			page 19


 443              	.LFB353:
 239:Drivers/STM32H7xx_HAL_Driver/Src/stm32h7xx_hal_crc.c ****   /* Prevent unused argument(s) compilation warning */
 444              		.loc 1 239 1 is_stmt 1 view -0
 445              		.cfi_startproc
 446              		@ args = 0, pretend = 0, frame = 0
 447              		@ frame_needed = 0, uses_anonymous_args = 0
 448              		@ link register save eliminated.
 241:Drivers/STM32H7xx_HAL_Driver/Src/stm32h7xx_hal_crc.c **** 
 449              		.loc 1 241 3 view .LVU141
 246:Drivers/STM32H7xx_HAL_Driver/Src/stm32h7xx_hal_crc.c **** 
 450              		.loc 1 246 1 is_stmt 0 view .LVU142
 451 0000 7047     		bx	lr
 452              		.cfi_endproc
 453              	.LFE353:
 455              		.section	.text.HAL_CRC_DeInit,"ax",%progbits
 456              		.align	1
 457              		.global	HAL_CRC_DeInit
 458              		.syntax unified
 459              		.thumb
 460              		.thumb_func
 462              	HAL_CRC_DeInit:
 463              	.LVL37:
 464              	.LFB351:
 180:Drivers/STM32H7xx_HAL_Driver/Src/stm32h7xx_hal_crc.c ****   /* Check the CRC handle allocation */
 465              		.loc 1 180 1 is_stmt 1 view -0
 466              		.cfi_startproc
 467              		@ args = 0, pretend = 0, frame = 0
 468              		@ frame_needed = 0, uses_anonymous_args = 0
 182:Drivers/STM32H7xx_HAL_Driver/Src/stm32h7xx_hal_crc.c ****   {
 469              		.loc 1 182 3 view .LVU144
 182:Drivers/STM32H7xx_HAL_Driver/Src/stm32h7xx_hal_crc.c ****   {
 470              		.loc 1 182 6 is_stmt 0 view .LVU145
 471 0000 B0B1     		cbz	r0, .L42
 180:Drivers/STM32H7xx_HAL_Driver/Src/stm32h7xx_hal_crc.c ****   /* Check the CRC handle allocation */
 472              		.loc 1 180 1 view .LVU146
 473 0002 38B5     		push	{r3, r4, r5, lr}
 474              	.LCFI5:
 475              		.cfi_def_cfa_offset 16
 476              		.cfi_offset 3, -16
 477              		.cfi_offset 4, -12
 478              		.cfi_offset 5, -8
 479              		.cfi_offset 14, -4
 480 0004 0546     		mov	r5, r0
 188:Drivers/STM32H7xx_HAL_Driver/Src/stm32h7xx_hal_crc.c **** 
 481              		.loc 1 188 3 is_stmt 1 view .LVU147
 191:Drivers/STM32H7xx_HAL_Driver/Src/stm32h7xx_hal_crc.c ****   {
 482              		.loc 1 191 3 view .LVU148
 191:Drivers/STM32H7xx_HAL_Driver/Src/stm32h7xx_hal_crc.c ****   {
 483              		.loc 1 191 11 is_stmt 0 view .LVU149
 484 0006 437F     		ldrb	r3, [r0, #29]	@ zero_extendqisi2
 485 0008 D8B2     		uxtb	r0, r3
 486              	.LVL38:
 191:Drivers/STM32H7xx_HAL_Driver/Src/stm32h7xx_hal_crc.c ****   {
 487              		.loc 1 191 6 view .LVU150
 488 000a 022B     		cmp	r3, #2
 489 000c 0FD0     		beq	.L41
 197:Drivers/STM32H7xx_HAL_Driver/Src/stm32h7xx_hal_crc.c **** 
ARM GAS  /var/folders/2r/ldzc7vgx4p51wnq3gxc1dn840000gn/T//cc5wJlMF.s 			page 20


 490              		.loc 1 197 3 is_stmt 1 view .LVU151
 197:Drivers/STM32H7xx_HAL_Driver/Src/stm32h7xx_hal_crc.c **** 
 491              		.loc 1 197 15 is_stmt 0 view .LVU152
 492 000e 0223     		movs	r3, #2
 493 0010 6B77     		strb	r3, [r5, #29]
 200:Drivers/STM32H7xx_HAL_Driver/Src/stm32h7xx_hal_crc.c **** 
 494              		.loc 1 200 3 is_stmt 1 view .LVU153
 495 0012 2A68     		ldr	r2, [r5]
 496 0014 9368     		ldr	r3, [r2, #8]
 497 0016 43F00103 		orr	r3, r3, #1
 498 001a 9360     		str	r3, [r2, #8]
 203:Drivers/STM32H7xx_HAL_Driver/Src/stm32h7xx_hal_crc.c **** 
 499              		.loc 1 203 3 view .LVU154
 500 001c 2B68     		ldr	r3, [r5]
 501 001e 0024     		movs	r4, #0
 502 0020 5C60     		str	r4, [r3, #4]
 206:Drivers/STM32H7xx_HAL_Driver/Src/stm32h7xx_hal_crc.c **** 
 503              		.loc 1 206 3 view .LVU155
 504 0022 2846     		mov	r0, r5
 505 0024 FFF7FEFF 		bl	HAL_CRC_MspDeInit
 506              	.LVL39:
 209:Drivers/STM32H7xx_HAL_Driver/Src/stm32h7xx_hal_crc.c **** 
 507              		.loc 1 209 3 view .LVU156
 209:Drivers/STM32H7xx_HAL_Driver/Src/stm32h7xx_hal_crc.c **** 
 508              		.loc 1 209 15 is_stmt 0 view .LVU157
 509 0028 6C77     		strb	r4, [r5, #29]
 212:Drivers/STM32H7xx_HAL_Driver/Src/stm32h7xx_hal_crc.c **** 
 510              		.loc 1 212 3 is_stmt 1 view .LVU158
 212:Drivers/STM32H7xx_HAL_Driver/Src/stm32h7xx_hal_crc.c **** 
 511              		.loc 1 212 3 view .LVU159
 512 002a 2C77     		strb	r4, [r5, #28]
 212:Drivers/STM32H7xx_HAL_Driver/Src/stm32h7xx_hal_crc.c **** 
 513              		.loc 1 212 3 view .LVU160
 215:Drivers/STM32H7xx_HAL_Driver/Src/stm32h7xx_hal_crc.c **** }
 514              		.loc 1 215 3 view .LVU161
 215:Drivers/STM32H7xx_HAL_Driver/Src/stm32h7xx_hal_crc.c **** }
 515              		.loc 1 215 10 is_stmt 0 view .LVU162
 516 002c 2046     		mov	r0, r4
 517              	.L41:
 216:Drivers/STM32H7xx_HAL_Driver/Src/stm32h7xx_hal_crc.c **** 
 518              		.loc 1 216 1 view .LVU163
 519 002e 38BD     		pop	{r3, r4, r5, pc}
 520              	.LVL40:
 521              	.L42:
 522              	.LCFI6:
 523              		.cfi_def_cfa_offset 0
 524              		.cfi_restore 3
 525              		.cfi_restore 4
 526              		.cfi_restore 5
 527              		.cfi_restore 14
 184:Drivers/STM32H7xx_HAL_Driver/Src/stm32h7xx_hal_crc.c ****   }
 528              		.loc 1 184 12 view .LVU164
 529 0030 0120     		movs	r0, #1
 530              	.LVL41:
 216:Drivers/STM32H7xx_HAL_Driver/Src/stm32h7xx_hal_crc.c **** 
 531              		.loc 1 216 1 view .LVU165
 532 0032 7047     		bx	lr
ARM GAS  /var/folders/2r/ldzc7vgx4p51wnq3gxc1dn840000gn/T//cc5wJlMF.s 			page 21


 533              		.cfi_endproc
 534              	.LFE351:
 536              		.section	.text.HAL_CRC_Accumulate,"ax",%progbits
 537              		.align	1
 538              		.global	HAL_CRC_Accumulate
 539              		.syntax unified
 540              		.thumb
 541              		.thumb_func
 543              	HAL_CRC_Accumulate:
 544              	.LVL42:
 545              	.LFB354:
 288:Drivers/STM32H7xx_HAL_Driver/Src/stm32h7xx_hal_crc.c ****   uint32_t index;      /* CRC input data buffer index */
 546              		.loc 1 288 1 is_stmt 1 view -0
 547              		.cfi_startproc
 548              		@ args = 0, pretend = 0, frame = 0
 549              		@ frame_needed = 0, uses_anonymous_args = 0
 288:Drivers/STM32H7xx_HAL_Driver/Src/stm32h7xx_hal_crc.c ****   uint32_t index;      /* CRC input data buffer index */
 550              		.loc 1 288 1 is_stmt 0 view .LVU167
 551 0000 38B5     		push	{r3, r4, r5, lr}
 552              	.LCFI7:
 553              		.cfi_def_cfa_offset 16
 554              		.cfi_offset 3, -16
 555              		.cfi_offset 4, -12
 556              		.cfi_offset 5, -8
 557              		.cfi_offset 14, -4
 558 0002 0446     		mov	r4, r0
 289:Drivers/STM32H7xx_HAL_Driver/Src/stm32h7xx_hal_crc.c ****   uint32_t temp = 0U;  /* CRC output (read from hcrc->Instance->DR register) */
 559              		.loc 1 289 3 is_stmt 1 view .LVU168
 290:Drivers/STM32H7xx_HAL_Driver/Src/stm32h7xx_hal_crc.c **** 
 560              		.loc 1 290 3 view .LVU169
 561              	.LVL43:
 293:Drivers/STM32H7xx_HAL_Driver/Src/stm32h7xx_hal_crc.c **** 
 562              		.loc 1 293 3 view .LVU170
 293:Drivers/STM32H7xx_HAL_Driver/Src/stm32h7xx_hal_crc.c **** 
 563              		.loc 1 293 15 is_stmt 0 view .LVU171
 564 0004 0223     		movs	r3, #2
 565 0006 4377     		strb	r3, [r0, #29]
 295:Drivers/STM32H7xx_HAL_Driver/Src/stm32h7xx_hal_crc.c ****   {
 566              		.loc 1 295 3 is_stmt 1 view .LVU172
 295:Drivers/STM32H7xx_HAL_Driver/Src/stm32h7xx_hal_crc.c ****   {
 567              		.loc 1 295 15 is_stmt 0 view .LVU173
 568 0008 036A     		ldr	r3, [r0, #32]
 295:Drivers/STM32H7xx_HAL_Driver/Src/stm32h7xx_hal_crc.c ****   {
 569              		.loc 1 295 3 view .LVU174
 570 000a 022B     		cmp	r3, #2
 571 000c 16D0     		beq	.L48
 572 000e 032B     		cmp	r3, #3
 573 0010 0FD0     		beq	.L53
 574 0012 012B     		cmp	r3, #1
 575 0014 0FD0     		beq	.L50
 576 0016 0020     		movs	r0, #0
 577              	.LVL44:
 578              	.L51:
 318:Drivers/STM32H7xx_HAL_Driver/Src/stm32h7xx_hal_crc.c **** 
 579              		.loc 1 318 3 is_stmt 1 view .LVU175
 318:Drivers/STM32H7xx_HAL_Driver/Src/stm32h7xx_hal_crc.c **** 
 580              		.loc 1 318 15 is_stmt 0 view .LVU176
ARM GAS  /var/folders/2r/ldzc7vgx4p51wnq3gxc1dn840000gn/T//cc5wJlMF.s 			page 22


 581 0018 0123     		movs	r3, #1
 582 001a 6377     		strb	r3, [r4, #29]
 321:Drivers/STM32H7xx_HAL_Driver/Src/stm32h7xx_hal_crc.c **** }
 583              		.loc 1 321 3 is_stmt 1 view .LVU177
 322:Drivers/STM32H7xx_HAL_Driver/Src/stm32h7xx_hal_crc.c **** 
 584              		.loc 1 322 1 is_stmt 0 view .LVU178
 585 001c 38BD     		pop	{r3, r4, r5, pc}
 586              	.LVL45:
 587              	.L52:
 301:Drivers/STM32H7xx_HAL_Driver/Src/stm32h7xx_hal_crc.c ****       }
 588              		.loc 1 301 9 is_stmt 1 view .LVU179
 301:Drivers/STM32H7xx_HAL_Driver/Src/stm32h7xx_hal_crc.c ****       }
 589              		.loc 1 301 13 is_stmt 0 view .LVU180
 590 001e 2068     		ldr	r0, [r4]
 301:Drivers/STM32H7xx_HAL_Driver/Src/stm32h7xx_hal_crc.c ****       }
 591              		.loc 1 301 28 view .LVU181
 592 0020 51F82350 		ldr	r5, [r1, r3, lsl #2]
 593 0024 0560     		str	r5, [r0]
 299:Drivers/STM32H7xx_HAL_Driver/Src/stm32h7xx_hal_crc.c ****       {
 594              		.loc 1 299 51 is_stmt 1 discriminator 3 view .LVU182
 595 0026 0133     		adds	r3, r3, #1
 596              	.LVL46:
 597              	.L49:
 299:Drivers/STM32H7xx_HAL_Driver/Src/stm32h7xx_hal_crc.c ****       {
 598              		.loc 1 299 30 discriminator 1 view .LVU183
 599 0028 9342     		cmp	r3, r2
 600 002a F8D3     		bcc	.L52
 303:Drivers/STM32H7xx_HAL_Driver/Src/stm32h7xx_hal_crc.c ****       break;
 601              		.loc 1 303 7 view .LVU184
 303:Drivers/STM32H7xx_HAL_Driver/Src/stm32h7xx_hal_crc.c ****       break;
 602              		.loc 1 303 18 is_stmt 0 view .LVU185
 603 002c 2368     		ldr	r3, [r4]
 604              	.LVL47:
 303:Drivers/STM32H7xx_HAL_Driver/Src/stm32h7xx_hal_crc.c ****       break;
 605              		.loc 1 303 12 view .LVU186
 606 002e 1868     		ldr	r0, [r3]
 607              	.LVL48:
 304:Drivers/STM32H7xx_HAL_Driver/Src/stm32h7xx_hal_crc.c **** 
 608              		.loc 1 304 7 is_stmt 1 view .LVU187
 609 0030 F2E7     		b	.L51
 610              	.LVL49:
 611              	.L53:
 295:Drivers/STM32H7xx_HAL_Driver/Src/stm32h7xx_hal_crc.c ****   {
 612              		.loc 1 295 3 is_stmt 0 view .LVU188
 613 0032 0023     		movs	r3, #0
 614 0034 F8E7     		b	.L49
 615              	.L50:
 307:Drivers/STM32H7xx_HAL_Driver/Src/stm32h7xx_hal_crc.c ****       break;
 616              		.loc 1 307 7 is_stmt 1 view .LVU189
 307:Drivers/STM32H7xx_HAL_Driver/Src/stm32h7xx_hal_crc.c ****       break;
 617              		.loc 1 307 14 is_stmt 0 view .LVU190
 618 0036 FFF7FEFF 		bl	CRC_Handle_8
 619              	.LVL50:
 308:Drivers/STM32H7xx_HAL_Driver/Src/stm32h7xx_hal_crc.c **** 
 620              		.loc 1 308 7 is_stmt 1 view .LVU191
 621 003a EDE7     		b	.L51
 622              	.LVL51:
ARM GAS  /var/folders/2r/ldzc7vgx4p51wnq3gxc1dn840000gn/T//cc5wJlMF.s 			page 23


 623              	.L48:
 311:Drivers/STM32H7xx_HAL_Driver/Src/stm32h7xx_hal_crc.c ****       break;
 624              		.loc 1 311 7 view .LVU192
 311:Drivers/STM32H7xx_HAL_Driver/Src/stm32h7xx_hal_crc.c ****       break;
 625              		.loc 1 311 14 is_stmt 0 view .LVU193
 626 003c FFF7FEFF 		bl	CRC_Handle_16
 627              	.LVL52:
 312:Drivers/STM32H7xx_HAL_Driver/Src/stm32h7xx_hal_crc.c ****     default:
 628              		.loc 1 312 7 is_stmt 1 view .LVU194
 629 0040 EAE7     		b	.L51
 630              		.cfi_endproc
 631              	.LFE354:
 633              		.section	.text.HAL_CRC_Calculate,"ax",%progbits
 634              		.align	1
 635              		.global	HAL_CRC_Calculate
 636              		.syntax unified
 637              		.thumb
 638              		.thumb_func
 640              	HAL_CRC_Calculate:
 641              	.LVL53:
 642              	.LFB355:
 340:Drivers/STM32H7xx_HAL_Driver/Src/stm32h7xx_hal_crc.c ****   uint32_t index;      /* CRC input data buffer index */
 643              		.loc 1 340 1 view -0
 644              		.cfi_startproc
 645              		@ args = 0, pretend = 0, frame = 0
 646              		@ frame_needed = 0, uses_anonymous_args = 0
 340:Drivers/STM32H7xx_HAL_Driver/Src/stm32h7xx_hal_crc.c ****   uint32_t index;      /* CRC input data buffer index */
 647              		.loc 1 340 1 is_stmt 0 view .LVU196
 648 0000 38B5     		push	{r3, r4, r5, lr}
 649              	.LCFI8:
 650              		.cfi_def_cfa_offset 16
 651              		.cfi_offset 3, -16
 652              		.cfi_offset 4, -12
 653              		.cfi_offset 5, -8
 654              		.cfi_offset 14, -4
 655 0002 0446     		mov	r4, r0
 341:Drivers/STM32H7xx_HAL_Driver/Src/stm32h7xx_hal_crc.c ****   uint32_t temp = 0U;  /* CRC output (read from hcrc->Instance->DR register) */
 656              		.loc 1 341 3 is_stmt 1 view .LVU197
 342:Drivers/STM32H7xx_HAL_Driver/Src/stm32h7xx_hal_crc.c **** 
 657              		.loc 1 342 3 view .LVU198
 658              	.LVL54:
 345:Drivers/STM32H7xx_HAL_Driver/Src/stm32h7xx_hal_crc.c **** 
 659              		.loc 1 345 3 view .LVU199
 345:Drivers/STM32H7xx_HAL_Driver/Src/stm32h7xx_hal_crc.c **** 
 660              		.loc 1 345 15 is_stmt 0 view .LVU200
 661 0004 0223     		movs	r3, #2
 662 0006 4377     		strb	r3, [r0, #29]
 349:Drivers/STM32H7xx_HAL_Driver/Src/stm32h7xx_hal_crc.c **** 
 663              		.loc 1 349 3 is_stmt 1 view .LVU201
 664 0008 0068     		ldr	r0, [r0]
 665              	.LVL55:
 349:Drivers/STM32H7xx_HAL_Driver/Src/stm32h7xx_hal_crc.c **** 
 666              		.loc 1 349 3 is_stmt 0 view .LVU202
 667 000a 8368     		ldr	r3, [r0, #8]
 668 000c 43F00103 		orr	r3, r3, #1
 669 0010 8360     		str	r3, [r0, #8]
 351:Drivers/STM32H7xx_HAL_Driver/Src/stm32h7xx_hal_crc.c ****   {
ARM GAS  /var/folders/2r/ldzc7vgx4p51wnq3gxc1dn840000gn/T//cc5wJlMF.s 			page 24


 670              		.loc 1 351 3 is_stmt 1 view .LVU203
 351:Drivers/STM32H7xx_HAL_Driver/Src/stm32h7xx_hal_crc.c ****   {
 671              		.loc 1 351 15 is_stmt 0 view .LVU204
 672 0012 236A     		ldr	r3, [r4, #32]
 351:Drivers/STM32H7xx_HAL_Driver/Src/stm32h7xx_hal_crc.c ****   {
 673              		.loc 1 351 3 view .LVU205
 674 0014 022B     		cmp	r3, #2
 675 0016 17D0     		beq	.L56
 676 0018 032B     		cmp	r3, #3
 677 001a 0FD0     		beq	.L61
 678 001c 012B     		cmp	r3, #1
 679 001e 0FD0     		beq	.L58
 680 0020 0020     		movs	r0, #0
 681              	.LVL56:
 682              	.L59:
 377:Drivers/STM32H7xx_HAL_Driver/Src/stm32h7xx_hal_crc.c **** 
 683              		.loc 1 377 3 is_stmt 1 view .LVU206
 377:Drivers/STM32H7xx_HAL_Driver/Src/stm32h7xx_hal_crc.c **** 
 684              		.loc 1 377 15 is_stmt 0 view .LVU207
 685 0022 0123     		movs	r3, #1
 686 0024 6377     		strb	r3, [r4, #29]
 380:Drivers/STM32H7xx_HAL_Driver/Src/stm32h7xx_hal_crc.c **** }
 687              		.loc 1 380 3 is_stmt 1 view .LVU208
 381:Drivers/STM32H7xx_HAL_Driver/Src/stm32h7xx_hal_crc.c **** 
 688              		.loc 1 381 1 is_stmt 0 view .LVU209
 689 0026 38BD     		pop	{r3, r4, r5, pc}
 690              	.LVL57:
 691              	.L60:
 357:Drivers/STM32H7xx_HAL_Driver/Src/stm32h7xx_hal_crc.c ****       }
 692              		.loc 1 357 9 is_stmt 1 view .LVU210
 357:Drivers/STM32H7xx_HAL_Driver/Src/stm32h7xx_hal_crc.c ****       }
 693              		.loc 1 357 13 is_stmt 0 view .LVU211
 694 0028 2068     		ldr	r0, [r4]
 357:Drivers/STM32H7xx_HAL_Driver/Src/stm32h7xx_hal_crc.c ****       }
 695              		.loc 1 357 28 view .LVU212
 696 002a 51F82350 		ldr	r5, [r1, r3, lsl #2]
 697 002e 0560     		str	r5, [r0]
 355:Drivers/STM32H7xx_HAL_Driver/Src/stm32h7xx_hal_crc.c ****       {
 698              		.loc 1 355 51 is_stmt 1 discriminator 3 view .LVU213
 699 0030 0133     		adds	r3, r3, #1
 700              	.LVL58:
 701              	.L57:
 355:Drivers/STM32H7xx_HAL_Driver/Src/stm32h7xx_hal_crc.c ****       {
 702              		.loc 1 355 30 discriminator 1 view .LVU214
 703 0032 9342     		cmp	r3, r2
 704 0034 F8D3     		bcc	.L60
 359:Drivers/STM32H7xx_HAL_Driver/Src/stm32h7xx_hal_crc.c ****       break;
 705              		.loc 1 359 7 view .LVU215
 359:Drivers/STM32H7xx_HAL_Driver/Src/stm32h7xx_hal_crc.c ****       break;
 706              		.loc 1 359 18 is_stmt 0 view .LVU216
 707 0036 2368     		ldr	r3, [r4]
 708              	.LVL59:
 359:Drivers/STM32H7xx_HAL_Driver/Src/stm32h7xx_hal_crc.c ****       break;
 709              		.loc 1 359 12 view .LVU217
 710 0038 1868     		ldr	r0, [r3]
 711              	.LVL60:
 360:Drivers/STM32H7xx_HAL_Driver/Src/stm32h7xx_hal_crc.c **** 
ARM GAS  /var/folders/2r/ldzc7vgx4p51wnq3gxc1dn840000gn/T//cc5wJlMF.s 			page 25


 712              		.loc 1 360 7 is_stmt 1 view .LVU218
 713 003a F2E7     		b	.L59
 714              	.LVL61:
 715              	.L61:
 351:Drivers/STM32H7xx_HAL_Driver/Src/stm32h7xx_hal_crc.c ****   {
 716              		.loc 1 351 3 is_stmt 0 view .LVU219
 717 003c 0023     		movs	r3, #0
 718 003e F8E7     		b	.L57
 719              	.L58:
 364:Drivers/STM32H7xx_HAL_Driver/Src/stm32h7xx_hal_crc.c ****       break;
 720              		.loc 1 364 7 is_stmt 1 view .LVU220
 364:Drivers/STM32H7xx_HAL_Driver/Src/stm32h7xx_hal_crc.c ****       break;
 721              		.loc 1 364 14 is_stmt 0 view .LVU221
 722 0040 2046     		mov	r0, r4
 723 0042 FFF7FEFF 		bl	CRC_Handle_8
 724              	.LVL62:
 365:Drivers/STM32H7xx_HAL_Driver/Src/stm32h7xx_hal_crc.c **** 
 725              		.loc 1 365 7 is_stmt 1 view .LVU222
 726 0046 ECE7     		b	.L59
 727              	.LVL63:
 728              	.L56:
 369:Drivers/STM32H7xx_HAL_Driver/Src/stm32h7xx_hal_crc.c ****       break;
 729              		.loc 1 369 7 view .LVU223
 369:Drivers/STM32H7xx_HAL_Driver/Src/stm32h7xx_hal_crc.c ****       break;
 730              		.loc 1 369 14 is_stmt 0 view .LVU224
 731 0048 2046     		mov	r0, r4
 732 004a FFF7FEFF 		bl	CRC_Handle_16
 733              	.LVL64:
 370:Drivers/STM32H7xx_HAL_Driver/Src/stm32h7xx_hal_crc.c **** 
 734              		.loc 1 370 7 is_stmt 1 view .LVU225
 735 004e E8E7     		b	.L59
 736              		.cfi_endproc
 737              	.LFE355:
 739              		.section	.text.HAL_CRC_GetState,"ax",%progbits
 740              		.align	1
 741              		.global	HAL_CRC_GetState
 742              		.syntax unified
 743              		.thumb
 744              		.thumb_func
 746              	HAL_CRC_GetState:
 747              	.LVL65:
 748              	.LFB356:
 407:Drivers/STM32H7xx_HAL_Driver/Src/stm32h7xx_hal_crc.c ****   /* Return CRC handle state */
 749              		.loc 1 407 1 view -0
 750              		.cfi_startproc
 751              		@ args = 0, pretend = 0, frame = 0
 752              		@ frame_needed = 0, uses_anonymous_args = 0
 753              		@ link register save eliminated.
 409:Drivers/STM32H7xx_HAL_Driver/Src/stm32h7xx_hal_crc.c **** }
 754              		.loc 1 409 3 view .LVU227
 409:Drivers/STM32H7xx_HAL_Driver/Src/stm32h7xx_hal_crc.c **** }
 755              		.loc 1 409 14 is_stmt 0 view .LVU228
 756 0000 407F     		ldrb	r0, [r0, #29]	@ zero_extendqisi2
 757              	.LVL66:
 410:Drivers/STM32H7xx_HAL_Driver/Src/stm32h7xx_hal_crc.c **** 
 758              		.loc 1 410 1 view .LVU229
 759 0002 7047     		bx	lr
ARM GAS  /var/folders/2r/ldzc7vgx4p51wnq3gxc1dn840000gn/T//cc5wJlMF.s 			page 26


 760              		.cfi_endproc
 761              	.LFE356:
 763              		.text
 764              	.Letext0:
 765              		.file 2 "/Applications/ArmGNUToolchain/14.2.rel1/arm-none-eabi/arm-none-eabi/include/machine/_defa
 766              		.file 3 "/Applications/ArmGNUToolchain/14.2.rel1/arm-none-eabi/arm-none-eabi/include/sys/_stdint.h
 767              		.file 4 "Drivers/CMSIS/Device/ST/STM32H7xx/Include/stm32h723xx.h"
 768              		.file 5 "Drivers/STM32H7xx_HAL_Driver/Inc/stm32h7xx_hal_def.h"
 769              		.file 6 "Drivers/STM32H7xx_HAL_Driver/Inc/stm32h7xx_hal_crc.h"
 770              		.file 7 "Drivers/STM32H7xx_HAL_Driver/Inc/stm32h7xx_hal_crc_ex.h"
ARM GAS  /var/folders/2r/ldzc7vgx4p51wnq3gxc1dn840000gn/T//cc5wJlMF.s 			page 27

